
slider.elf:     file format elf32-avr

Sections:
Idx Name          Size      VMA       LMA       File off  Algn
  0 .data         000000d4  00804000  00002770  00002804  2**0
                  CONTENTS, ALLOC, LOAD, DATA
  1 .text         00002770  00000000  00000000  00000094  2**1
                  CONTENTS, ALLOC, LOAD, READONLY, CODE
  2 .bss          0000004e  008040d4  008040d4  000028d8  2**0
                  ALLOC
  3 .comment      00000030  00000000  00000000  000028d8  2**0
                  CONTENTS, READONLY
  4 .note.gnu.avr.deviceinfo 00000040  00000000  00000000  00002908  2**2
                  CONTENTS, READONLY
  5 .debug_aranges 000002c8  00000000  00000000  00002948  2**3
                  CONTENTS, READONLY, DEBUGGING
  6 .debug_info   00006c96  00000000  00000000  00002c10  2**0
                  CONTENTS, READONLY, DEBUGGING
  7 .debug_abbrev 00003e6d  00000000  00000000  000098a6  2**0
                  CONTENTS, READONLY, DEBUGGING
  8 .debug_line   000018e4  00000000  00000000  0000d713  2**0
                  CONTENTS, READONLY, DEBUGGING
  9 .debug_frame  000004d4  00000000  00000000  0000eff8  2**2
                  CONTENTS, READONLY, DEBUGGING
 10 .debug_str    00003278  00000000  00000000  0000f4cc  2**0
                  CONTENTS, READONLY, DEBUGGING
 11 .debug_loc    00000b7f  00000000  00000000  00012744  2**0
                  CONTENTS, READONLY, DEBUGGING
 12 .debug_ranges 000001d8  00000000  00000000  000132c3  2**0
                  CONTENTS, READONLY, DEBUGGING

Disassembly of section .text:

00000000 <__vectors>:
       0:	0c 94 74 00 	jmp	0xe8	; 0xe8 <__ctors_end>
       4:	0c 94 93 00 	jmp	0x126	; 0x126 <__bad_interrupt>
       8:	0c 94 93 00 	jmp	0x126	; 0x126 <__bad_interrupt>
       c:	0c 94 9a 00 	jmp	0x134	; 0x134 <__vector_3>
      10:	0c 94 93 00 	jmp	0x126	; 0x126 <__bad_interrupt>
      14:	0c 94 93 00 	jmp	0x126	; 0x126 <__bad_interrupt>
      18:	0c 94 93 00 	jmp	0x126	; 0x126 <__bad_interrupt>
      1c:	0c 94 93 00 	jmp	0x126	; 0x126 <__bad_interrupt>
      20:	0c 94 93 00 	jmp	0x126	; 0x126 <__bad_interrupt>
      24:	0c 94 93 00 	jmp	0x126	; 0x126 <__bad_interrupt>
      28:	0c 94 93 00 	jmp	0x126	; 0x126 <__bad_interrupt>
      2c:	0c 94 93 00 	jmp	0x126	; 0x126 <__bad_interrupt>
      30:	0c 94 93 00 	jmp	0x126	; 0x126 <__bad_interrupt>
      34:	0c 94 93 00 	jmp	0x126	; 0x126 <__bad_interrupt>
      38:	0c 94 93 00 	jmp	0x126	; 0x126 <__bad_interrupt>
      3c:	0c 94 93 00 	jmp	0x126	; 0x126 <__bad_interrupt>
      40:	0c 94 93 00 	jmp	0x126	; 0x126 <__bad_interrupt>
      44:	0c 94 93 00 	jmp	0x126	; 0x126 <__bad_interrupt>
      48:	0c 94 93 00 	jmp	0x126	; 0x126 <__bad_interrupt>
      4c:	0c 94 93 00 	jmp	0x126	; 0x126 <__bad_interrupt>
      50:	0c 94 93 00 	jmp	0x126	; 0x126 <__bad_interrupt>
      54:	0c 94 93 00 	jmp	0x126	; 0x126 <__bad_interrupt>
      58:	0c 94 93 00 	jmp	0x126	; 0x126 <__bad_interrupt>
      5c:	0c 94 93 00 	jmp	0x126	; 0x126 <__bad_interrupt>
      60:	0c 94 93 00 	jmp	0x126	; 0x126 <__bad_interrupt>
      64:	0c 94 93 00 	jmp	0x126	; 0x126 <__bad_interrupt>
      68:	0c 94 93 00 	jmp	0x126	; 0x126 <__bad_interrupt>
      6c:	0c 94 a2 03 	jmp	0x744	; 0x744 <__vector_27>
      70:	0c 94 93 00 	jmp	0x126	; 0x126 <__bad_interrupt>
      74:	0c 94 93 00 	jmp	0x126	; 0x126 <__bad_interrupt>
      78:	0c 94 93 00 	jmp	0x126	; 0x126 <__bad_interrupt>
      7c:	0c 94 93 00 	jmp	0x126	; 0x126 <__bad_interrupt>
      80:	0c 94 93 00 	jmp	0x126	; 0x126 <__bad_interrupt>
      84:	0c 94 93 00 	jmp	0x126	; 0x126 <__bad_interrupt>
      88:	0c 94 93 00 	jmp	0x126	; 0x126 <__bad_interrupt>
      8c:	0c 94 93 00 	jmp	0x126	; 0x126 <__bad_interrupt>
      90:	0c 94 93 00 	jmp	0x126	; 0x126 <__bad_interrupt>
      94:	0c 94 93 00 	jmp	0x126	; 0x126 <__bad_interrupt>
      98:	0c 94 93 00 	jmp	0x126	; 0x126 <__bad_interrupt>
      9c:	0c 94 93 00 	jmp	0x126	; 0x126 <__bad_interrupt>
      a0:	0c 94 93 00 	jmp	0x126	; 0x126 <__bad_interrupt>
      a4:	0c 94 93 00 	jmp	0x126	; 0x126 <__bad_interrupt>
      a8:	0c 94 93 00 	jmp	0x126	; 0x126 <__bad_interrupt>
      ac:	0c 94 93 00 	jmp	0x126	; 0x126 <__bad_interrupt>
      b0:	0c 94 93 00 	jmp	0x126	; 0x126 <__bad_interrupt>
      b4:	0c 94 93 00 	jmp	0x126	; 0x126 <__bad_interrupt>
      b8:	0c 94 93 00 	jmp	0x126	; 0x126 <__bad_interrupt>
      bc:	0c 94 93 00 	jmp	0x126	; 0x126 <__bad_interrupt>
      c0:	0c 94 93 00 	jmp	0x126	; 0x126 <__bad_interrupt>
      c4:	0c 94 93 00 	jmp	0x126	; 0x126 <__bad_interrupt>
      c8:	0c 94 93 00 	jmp	0x126	; 0x126 <__bad_interrupt>
      cc:	0c 94 93 00 	jmp	0x126	; 0x126 <__bad_interrupt>
      d0:	0c 94 93 00 	jmp	0x126	; 0x126 <__bad_interrupt>
      d4:	0c 94 93 00 	jmp	0x126	; 0x126 <__bad_interrupt>
      d8:	0c 94 93 00 	jmp	0x126	; 0x126 <__bad_interrupt>
      dc:	0c 94 93 00 	jmp	0x126	; 0x126 <__bad_interrupt>
      e0:	0c 94 93 00 	jmp	0x126	; 0x126 <__bad_interrupt>
      e4:	0c 94 93 00 	jmp	0x126	; 0x126 <__bad_interrupt>

000000e8 <__ctors_end>:
      e8:	11 24       	eor	r1, r1
      ea:	1f be       	out	0x3f, r1	; 63
      ec:	cf ef       	ldi	r28, 0xFF	; 255
      ee:	cd bf       	out	0x3d, r28	; 61
      f0:	df e7       	ldi	r29, 0x7F	; 127
      f2:	de bf       	out	0x3e, r29	; 62

000000f4 <__do_copy_data>:
      f4:	10 e4       	ldi	r17, 0x40	; 64
      f6:	a0 e0       	ldi	r26, 0x00	; 0
      f8:	b0 e4       	ldi	r27, 0x40	; 64
      fa:	e0 e7       	ldi	r30, 0x70	; 112
      fc:	f7 e2       	ldi	r31, 0x27	; 39
      fe:	00 e0       	ldi	r16, 0x00	; 0
     100:	0b bf       	out	0x3b, r16	; 59
     102:	02 c0       	rjmp	.+4      	; 0x108 <__do_copy_data+0x14>
     104:	07 90       	elpm	r0, Z+
     106:	0d 92       	st	X+, r0
     108:	a4 3d       	cpi	r26, 0xD4	; 212
     10a:	b1 07       	cpc	r27, r17
     10c:	d9 f7       	brne	.-10     	; 0x104 <__do_copy_data+0x10>

0000010e <__do_clear_bss>:
     10e:	21 e4       	ldi	r18, 0x41	; 65
     110:	a4 ed       	ldi	r26, 0xD4	; 212
     112:	b0 e4       	ldi	r27, 0x40	; 64
     114:	01 c0       	rjmp	.+2      	; 0x118 <.do_clear_bss_start>

00000116 <.do_clear_bss_loop>:
     116:	1d 92       	st	X+, r1

00000118 <.do_clear_bss_start>:
     118:	a2 32       	cpi	r26, 0x22	; 34
     11a:	b2 07       	cpc	r27, r18
     11c:	e1 f7       	brne	.-8      	; 0x116 <.do_clear_bss_loop>
     11e:	0e 94 18 01 	call	0x230	; 0x230 <main>
     122:	0c 94 b6 13 	jmp	0x276c	; 0x276c <_exit>

00000126 <__bad_interrupt>:
     126:	0c 94 00 00 	jmp	0	; 0x0 <__vectors>

0000012a <atmel_start_init>:
/**
 * Initializes MCU, drivers and middleware in the project
 **/
void atmel_start_init(void)
{
	system_init();
     12a:	0e 94 1b 04 	call	0x836	; 0x836 <system_init>

	touch_init();
     12e:	0e 94 9f 02 	call	0x53e	; 0x53e <touch_init>
     132:	08 95       	ret

00000134 <__vector_3>:

#include <driver_init.h>
#include <compiler.h>

ISR(RTC_CNT_vect)
{
     134:	1f 92       	push	r1
     136:	0f 92       	push	r0
     138:	0f b6       	in	r0, 0x3f	; 63
     13a:	0f 92       	push	r0
     13c:	11 24       	eor	r1, r1
     13e:	0b b6       	in	r0, 0x3b	; 59
     140:	0f 92       	push	r0
     142:	2f 93       	push	r18
     144:	3f 93       	push	r19
     146:	4f 93       	push	r20
     148:	5f 93       	push	r21
     14a:	6f 93       	push	r22
     14c:	7f 93       	push	r23
     14e:	8f 93       	push	r24
     150:	9f 93       	push	r25
     152:	af 93       	push	r26
     154:	bf 93       	push	r27
     156:	ef 93       	push	r30
     158:	ff 93       	push	r31

	/* Insert your RTC Compare interrupt handling code */
	touch_timer_handler();
     15a:	0e 94 37 03 	call	0x66e	; 0x66e <touch_timer_handler>

	/* Compare interrupt flag has to be cleared manually */
	RTC.INTFLAGS = RTC_CMP_bm;
     15e:	82 e0       	ldi	r24, 0x02	; 2
     160:	80 93 43 01 	sts	0x0143, r24	; 0x800143 <__TEXT_REGION_LENGTH__+0x7e0143>
}
     164:	ff 91       	pop	r31
     166:	ef 91       	pop	r30
     168:	bf 91       	pop	r27
     16a:	af 91       	pop	r26
     16c:	9f 91       	pop	r25
     16e:	8f 91       	pop	r24
     170:	7f 91       	pop	r23
     172:	6f 91       	pop	r22
     174:	5f 91       	pop	r21
     176:	4f 91       	pop	r20
     178:	3f 91       	pop	r19
     17a:	2f 91       	pop	r18
     17c:	0f 90       	pop	r0
     17e:	0b be       	out	0x3b, r0	; 59
     180:	0f 90       	pop	r0
     182:	0f be       	out	0x3f, r0	; 63
     184:	0f 90       	pop	r0
     186:	1f 90       	pop	r1
     188:	18 95       	reti

0000018a <touch_status_display>:
Output : none
Notes  : none
============================================================================*/
void touch_status_display(void)
{
	key_status = get_sensor_state(0) & KEY_TOUCHED_MASK;
     18a:	80 e0       	ldi	r24, 0x00	; 0
     18c:	90 e0       	ldi	r25, 0x00	; 0
     18e:	0e 94 70 03 	call	0x6e0	; 0x6e0 <get_sensor_state>
     192:	80 78       	andi	r24, 0x80	; 128
     194:	80 93 d7 40 	sts	0x40D7, r24	; 0x8040d7 <key_status>
	if (0u != key_status) {
		// LED_ON
	} else {
		// LED_OFF
	}
	key_status = get_sensor_state(1) & KEY_TOUCHED_MASK;
     198:	81 e0       	ldi	r24, 0x01	; 1
     19a:	90 e0       	ldi	r25, 0x00	; 0
     19c:	0e 94 70 03 	call	0x6e0	; 0x6e0 <get_sensor_state>
     1a0:	80 78       	andi	r24, 0x80	; 128
     1a2:	80 93 d7 40 	sts	0x40D7, r24	; 0x8040d7 <key_status>
	if (0u != key_status) {
		// LED_ON
	} else {
		// LED_OFF
	}
	key_status = get_sensor_state(2) & KEY_TOUCHED_MASK;
     1a6:	82 e0       	ldi	r24, 0x02	; 2
     1a8:	90 e0       	ldi	r25, 0x00	; 0
     1aa:	0e 94 70 03 	call	0x6e0	; 0x6e0 <get_sensor_state>
     1ae:	80 78       	andi	r24, 0x80	; 128
     1b0:	80 93 d7 40 	sts	0x40D7, r24	; 0x8040d7 <key_status>
		// LED_ON
	} else {
		// LED_OFF
	}

	scroller_status   = get_scroller_state(0);
     1b4:	80 e0       	ldi	r24, 0x00	; 0
     1b6:	90 e0       	ldi	r25, 0x00	; 0
     1b8:	0e 94 7f 03 	call	0x6fe	; 0x6fe <get_scroller_state>
     1bc:	80 93 d6 40 	sts	0x40D6, r24	; 0x8040d6 <scroller_status>
	scroller_position = get_scroller_position(0);
     1c0:	80 e0       	ldi	r24, 0x00	; 0
     1c2:	90 e0       	ldi	r25, 0x00	; 0
     1c4:	0e 94 90 03 	call	0x720	; 0x720 <get_scroller_position>
     1c8:	80 93 d4 40 	sts	0x40D4, r24	; 0x8040d4 <__data_end>
     1cc:	90 93 d5 40 	sts	0x40D5, r25	; 0x8040d5 <__data_end+0x1>
	// Example: 8 bit scroller resolution. Modify as per requirement.
	uint8_t pos = scroller_position * 9.0 / 256.0;
	//pos = 8 - pos;
	uint32_t leds = (uint32_t) 1 << ( pos + 15 ) ;
	shiftOut(leds);
     1d0:	bc 01       	movw	r22, r24
     1d2:	80 e0       	ldi	r24, 0x00	; 0
     1d4:	90 e0       	ldi	r25, 0x00	; 0
     1d6:	0e 94 91 12 	call	0x2522	; 0x2522 <__floatunsisf>
     1da:	20 e0       	ldi	r18, 0x00	; 0
     1dc:	30 e0       	ldi	r19, 0x00	; 0
     1de:	40 e1       	ldi	r20, 0x10	; 16
     1e0:	51 e4       	ldi	r21, 0x41	; 65
     1e2:	0e 94 f7 12 	call	0x25ee	; 0x25ee <__mulsf3>
     1e6:	20 e0       	ldi	r18, 0x00	; 0
     1e8:	30 e0       	ldi	r19, 0x00	; 0
     1ea:	40 e8       	ldi	r20, 0x80	; 128
     1ec:	5b e3       	ldi	r21, 0x3B	; 59
     1ee:	0e 94 f7 12 	call	0x25ee	; 0x25ee <__mulsf3>
     1f2:	0e 94 62 12 	call	0x24c4	; 0x24c4 <__fixunssfsi>
     1f6:	2f e0       	ldi	r18, 0x0F	; 15
     1f8:	26 0f       	add	r18, r22
     1fa:	81 e0       	ldi	r24, 0x01	; 1
     1fc:	90 e0       	ldi	r25, 0x00	; 0
     1fe:	a0 e0       	ldi	r26, 0x00	; 0
     200:	b0 e0       	ldi	r27, 0x00	; 0
     202:	bc 01       	movw	r22, r24
     204:	cd 01       	movw	r24, r26
     206:	04 c0       	rjmp	.+8      	; 0x210 <__EEPROM_REGION_LENGTH__+0x10>
     208:	66 0f       	add	r22, r22
     20a:	77 1f       	adc	r23, r23
     20c:	88 1f       	adc	r24, r24
     20e:	99 1f       	adc	r25, r25
     210:	2a 95       	dec	r18
     212:	d2 f7       	brpl	.-12     	; 0x208 <__EEPROM_REGION_LENGTH__+0x8>
     214:	0e 94 25 01 	call	0x24a	; 0x24a <shiftOut>
     218:	08 95       	ret

0000021a <touch_example>:
	 *
	 * Note: This is a sample file to provide reference on using touch status in a user application. This file is not
	 * linked to a project build.
	 */

	touch_process();
     21a:	0e 94 f2 02 	call	0x5e4	; 0x5e4 <touch_process>
	if (measurement_done_touch == 1) {
     21e:	80 91 db 40 	lds	r24, 0x40DB	; 0x8040db <measurement_done_touch>
     222:	81 30       	cpi	r24, 0x01	; 1
     224:	21 f4       	brne	.+8      	; 0x22e <touch_example+0x14>
		measurement_done_touch = 0;
     226:	10 92 db 40 	sts	0x40DB, r1	; 0x8040db <measurement_done_touch>
		touch_status_display();
     22a:	0e 94 c5 00 	call	0x18a	; 0x18a <touch_status_display>
     22e:	08 95       	ret

00000230 <main>:
void shiftOut(uint32_t data);

int main(void)
{
	/* Initializes MCU, drivers and middleware */
	atmel_start_init();
     230:	0e 94 95 00 	call	0x12a	; 0x12a <atmel_start_init>
	PORTF.DIR = ( 1 << 2 );
     234:	84 e0       	ldi	r24, 0x04	; 4
     236:	80 93 a0 04 	sts	0x04A0, r24	; 0x8004a0 <__TEXT_REGION_LENGTH__+0x7e04a0>
	PORTC.DIR |= ( 1 << 5 ) | ( 1 << 6 ) | ( 1 << 7 );
     23a:	e0 e4       	ldi	r30, 0x40	; 64
     23c:	f4 e0       	ldi	r31, 0x04	; 4
     23e:	80 81       	ld	r24, Z
     240:	80 6e       	ori	r24, 0xE0	; 224
     242:	80 83       	st	Z, r24

	/* Replace with your application code */
	while (1) {
	touch_example();
     244:	0e 94 0d 01 	call	0x21a	; 0x21a <touch_example>
     248:	fd cf       	rjmp	.-6      	; 0x244 <main+0x14>

0000024a <shiftOut>:
	}
}

void shiftOut(uint32_t data){
     24a:	cf 92       	push	r12
     24c:	df 92       	push	r13
     24e:	ef 92       	push	r14
     250:	ff 92       	push	r15
	PORTC.OUTCLR = ( 1 << 5 ) | ( 1 << 6 ) | ( 1 << 7 );
     252:	20 ee       	ldi	r18, 0xE0	; 224
     254:	20 93 46 04 	sts	0x0446, r18	; 0x800446 <__TEXT_REGION_LENGTH__+0x7e0446>
	data &= (0x00ffffff);
     258:	6b 01       	movw	r12, r22
     25a:	7c 01       	movw	r14, r24
     25c:	ff 24       	eor	r15, r15
     25e:	87 e1       	ldi	r24, 0x17	; 23
     260:	90 e0       	ldi	r25, 0x00	; 0
	for(int8_t i=23 ; i >= 0 ; i--){
		if( data & ( (uint32_t)1 << i) ) PORTC.OUTSET = ( 1 << 5);
		else PORTC.OUTCLR = ( 1 << 5);
     262:	e0 e4       	ldi	r30, 0x40	; 64
     264:	f4 e0       	ldi	r31, 0x04	; 4
     266:	30 e2       	ldi	r19, 0x20	; 32
		PORTC.OUTSET = (1 << 7 );
     268:	20 e8       	ldi	r18, 0x80	; 128

void shiftOut(uint32_t data){
	PORTC.OUTCLR = ( 1 << 5 ) | ( 1 << 6 ) | ( 1 << 7 );
	data &= (0x00ffffff);
	for(int8_t i=23 ; i >= 0 ; i--){
		if( data & ( (uint32_t)1 << i) ) PORTC.OUTSET = ( 1 << 5);
     26a:	b7 01       	movw	r22, r14
     26c:	a6 01       	movw	r20, r12
     26e:	08 2e       	mov	r0, r24
     270:	04 c0       	rjmp	.+8      	; 0x27a <shiftOut+0x30>
     272:	76 95       	lsr	r23
     274:	67 95       	ror	r22
     276:	57 95       	ror	r21
     278:	47 95       	ror	r20
     27a:	0a 94       	dec	r0
     27c:	d2 f7       	brpl	.-12     	; 0x272 <shiftOut+0x28>
     27e:	40 ff       	sbrs	r20, 0
     280:	02 c0       	rjmp	.+4      	; 0x286 <shiftOut+0x3c>
     282:	35 83       	std	Z+5, r19	; 0x05
     284:	01 c0       	rjmp	.+2      	; 0x288 <shiftOut+0x3e>
		else PORTC.OUTCLR = ( 1 << 5);
     286:	36 83       	std	Z+6, r19	; 0x06
		PORTC.OUTSET = (1 << 7 );
     288:	25 83       	std	Z+5, r18	; 0x05
	#else
		//round up by default
		__ticks_dc = (uint32_t)(ceil(fabs(__tmp)));
	#endif

	__builtin_avr_delay_cycles(__ticks_dc);
     28a:	ab e2       	ldi	r26, 0x2B	; 43
     28c:	b1 e0       	ldi	r27, 0x01	; 1
     28e:	11 97       	sbiw	r26, 0x01	; 1
     290:	f1 f7       	brne	.-4      	; 0x28e <shiftOut+0x44>
     292:	00 c0       	rjmp	.+0      	; 0x294 <shiftOut+0x4a>
     294:	00 00       	nop
		_delay_us(50);
		PORTC.OUTCLR = (1 << 7 );
     296:	26 83       	std	Z+6, r18	; 0x06
     298:	ab e2       	ldi	r26, 0x2B	; 43
     29a:	b1 e0       	ldi	r27, 0x01	; 1
     29c:	11 97       	sbiw	r26, 0x01	; 1
     29e:	f1 f7       	brne	.-4      	; 0x29c <shiftOut+0x52>
     2a0:	00 c0       	rjmp	.+0      	; 0x2a2 <shiftOut+0x58>
     2a2:	00 00       	nop
     2a4:	01 97       	sbiw	r24, 0x01	; 1
     2a6:	08 f7       	brcc	.-62     	; 0x26a <shiftOut+0x20>
		_delay_us(50);
	}
	PORTC.OUTSET = (1 << 6 );
     2a8:	e0 e4       	ldi	r30, 0x40	; 64
     2aa:	f4 e0       	ldi	r31, 0x04	; 4
     2ac:	80 e4       	ldi	r24, 0x40	; 64
     2ae:	85 83       	std	Z+5, r24	; 0x05
     2b0:	ab e2       	ldi	r26, 0x2B	; 43
     2b2:	b1 e0       	ldi	r27, 0x01	; 1
     2b4:	11 97       	sbiw	r26, 0x01	; 1
     2b6:	f1 f7       	brne	.-4      	; 0x2b4 <shiftOut+0x6a>
     2b8:	00 c0       	rjmp	.+0      	; 0x2ba <shiftOut+0x70>
     2ba:	00 00       	nop
	_delay_us(50);
	PORTC.OUTCLR = (1 << 6 );
     2bc:	86 83       	std	Z+6, r24	; 0x06
}
     2be:	ff 90       	pop	r15
     2c0:	ef 90       	pop	r14
     2c2:	df 90       	pop	r13
     2c4:	cf 90       	pop	r12
     2c6:	08 95       	ret

000002c8 <datastreamer_init>:
Input  : none
Output : none
Notes  :
============================================================================*/
void datastreamer_init(void)
{
     2c8:	08 95       	ret

000002ca <datastreamer_transmit>:
Input  : Byte to be transmitted
Output : none
Notes  :
============================================================================*/
void datastreamer_transmit(uint8_t data_byte)
{
     2ca:	cf 93       	push	r28
     2cc:	c8 2f       	mov	r28, r24
	while (!USART_is_tx_ready())
     2ce:	0e 94 49 04 	call	0x892	; 0x892 <USART_is_tx_ready>
     2d2:	88 23       	and	r24, r24
     2d4:	e1 f3       	breq	.-8      	; 0x2ce <datastreamer_transmit+0x4>
		;

	USART_write(data_byte);
     2d6:	8c 2f       	mov	r24, r28
     2d8:	0e 94 57 04 	call	0x8ae	; 0x8ae <USART_write>

	while (USART_is_tx_busy())
     2dc:	0e 94 4f 04 	call	0x89e	; 0x89e <USART_is_tx_busy>
     2e0:	81 11       	cpse	r24, r1
     2e2:	fc cf       	rjmp	.-8      	; 0x2dc <datastreamer_transmit+0x12>
		;
}
     2e4:	cf 91       	pop	r28
     2e6:	08 95       	ret

000002e8 <datastreamer_output>:
Output : none
Notes  : The data visualizer scripts that are generated in the project should be
         set on the data visualizer software.
============================================================================*/
void datastreamer_output(void)
{
     2e8:	ef 92       	push	r14
     2ea:	ff 92       	push	r15
     2ec:	0f 93       	push	r16
     2ee:	1f 93       	push	r17
     2f0:	cf 93       	push	r28
     2f2:	df 93       	push	r29
     2f4:	00 d0       	rcall	.+0      	; 0x2f6 <datastreamer_output+0xe>
     2f6:	cd b7       	in	r28, 0x3d	; 61
     2f8:	de b7       	in	r29, 0x3e	; 62
	uint16_t          u16temp_output;
	uint8_t           u8temp_output, send_header;
	volatile uint16_t count_bytes_out;

	send_header = sequence & (0x0f);
	if (send_header == 0) {
     2fa:	80 91 d8 40 	lds	r24, 0x40D8	; 0x8040d8 <sequence.4923>
     2fe:	8f 70       	andi	r24, 0x0F	; 15
     300:	81 f4       	brne	.+32     	; 0x322 <datastreamer_output+0x3a>
     302:	00 e0       	ldi	r16, 0x00	; 0
     304:	10 e4       	ldi	r17, 0x40	; 64
     306:	0f 2e       	mov	r0, r31
     308:	f3 e1       	ldi	r31, 0x13	; 19
     30a:	ef 2e       	mov	r14, r31
     30c:	f0 e4       	ldi	r31, 0x40	; 64
     30e:	ff 2e       	mov	r15, r31
     310:	f0 2d       	mov	r31, r0
		for (i = 0; i < sizeof(data); i++) {
			datastreamer_transmit(data[i]);
     312:	d8 01       	movw	r26, r16
     314:	8d 91       	ld	r24, X+
     316:	8d 01       	movw	r16, r26
     318:	0e 94 65 01 	call	0x2ca	; 0x2ca <datastreamer_transmit>
	uint8_t           u8temp_output, send_header;
	volatile uint16_t count_bytes_out;

	send_header = sequence & (0x0f);
	if (send_header == 0) {
		for (i = 0; i < sizeof(data); i++) {
     31c:	0e 15       	cp	r16, r14
     31e:	1f 05       	cpc	r17, r15
     320:	c1 f7       	brne	.-16     	; 0x312 <datastreamer_output+0x2a>
			datastreamer_transmit(data[i]);
		}
	}

	// Start token
	datastreamer_transmit(0x55);
     322:	85 e5       	ldi	r24, 0x55	; 85
     324:	0e 94 65 01 	call	0x2ca	; 0x2ca <datastreamer_transmit>

	// Frame Start
	datastreamer_transmit(sequence);
     328:	80 91 d8 40 	lds	r24, 0x40D8	; 0x8040d8 <sequence.4923>
     32c:	0e 94 65 01 	call	0x2ca	; 0x2ca <datastreamer_transmit>
	for (count_bytes_out = 0u; count_bytes_out < DEF_NUM_CHANNELS; count_bytes_out++) {
     330:	19 82       	std	Y+1, r1	; 0x01
     332:	1a 82       	std	Y+2, r1	; 0x02
     334:	89 81       	ldd	r24, Y+1	; 0x01
     336:	9a 81       	ldd	r25, Y+2	; 0x02
     338:	03 97       	sbiw	r24, 0x03	; 3
     33a:	08 f0       	brcs	.+2      	; 0x33e <datastreamer_output+0x56>
     33c:	53 c0       	rjmp	.+166    	; 0x3e4 <datastreamer_output+0xfc>

		/* Signals */
		u16temp_output = get_sensor_node_signal(count_bytes_out);
     33e:	89 81       	ldd	r24, Y+1	; 0x01
     340:	9a 81       	ldd	r25, Y+2	; 0x02
     342:	0e 94 49 03 	call	0x692	; 0x692 <get_sensor_node_signal>
     346:	19 2f       	mov	r17, r25
		datastreamer_transmit((uint8_t)u16temp_output);
     348:	0e 94 65 01 	call	0x2ca	; 0x2ca <datastreamer_transmit>
		datastreamer_transmit((uint8_t)(u16temp_output >> 8u));
     34c:	81 2f       	mov	r24, r17
     34e:	0e 94 65 01 	call	0x2ca	; 0x2ca <datastreamer_transmit>

		/* Reference */
		u16temp_output = get_sensor_node_reference(count_bytes_out);
     352:	89 81       	ldd	r24, Y+1	; 0x01
     354:	9a 81       	ldd	r25, Y+2	; 0x02
     356:	0e 94 56 03 	call	0x6ac	; 0x6ac <get_sensor_node_reference>
     35a:	19 2f       	mov	r17, r25
		datastreamer_transmit((uint8_t)u16temp_output);
     35c:	0e 94 65 01 	call	0x2ca	; 0x2ca <datastreamer_transmit>
		datastreamer_transmit((uint8_t)(u16temp_output >> 8u));
     360:	81 2f       	mov	r24, r17
     362:	0e 94 65 01 	call	0x2ca	; 0x2ca <datastreamer_transmit>

		/* Touch delta */
		temp_int_calc = get_sensor_node_signal(count_bytes_out);
     366:	89 81       	ldd	r24, Y+1	; 0x01
     368:	9a 81       	ldd	r25, Y+2	; 0x02
     36a:	0e 94 49 03 	call	0x692	; 0x692 <get_sensor_node_signal>
     36e:	8c 01       	movw	r16, r24
		temp_int_calc -= get_sensor_node_reference(count_bytes_out);
     370:	89 81       	ldd	r24, Y+1	; 0x01
     372:	9a 81       	ldd	r25, Y+2	; 0x02
     374:	0e 94 56 03 	call	0x6ac	; 0x6ac <get_sensor_node_reference>
     378:	08 1b       	sub	r16, r24
     37a:	19 0b       	sbc	r17, r25
		u16temp_output = (uint16_t)(temp_int_calc);
		datastreamer_transmit((uint8_t)u16temp_output);
     37c:	80 2f       	mov	r24, r16
     37e:	0e 94 65 01 	call	0x2ca	; 0x2ca <datastreamer_transmit>
		datastreamer_transmit((uint8_t)(u16temp_output >> 8u));
     382:	81 2f       	mov	r24, r17
     384:	0e 94 65 01 	call	0x2ca	; 0x2ca <datastreamer_transmit>

		/* Comp Caps */
		u16temp_output = get_sensor_cc_val(count_bytes_out);
     388:	89 81       	ldd	r24, Y+1	; 0x01
     38a:	9a 81       	ldd	r25, Y+2	; 0x02
     38c:	0e 94 63 03 	call	0x6c6	; 0x6c6 <get_sensor_cc_val>
     390:	19 2f       	mov	r17, r25
		datastreamer_transmit((uint8_t)u16temp_output);
     392:	0e 94 65 01 	call	0x2ca	; 0x2ca <datastreamer_transmit>
		datastreamer_transmit((uint8_t)(u16temp_output >> 8u));
     396:	81 2f       	mov	r24, r17
     398:	0e 94 65 01 	call	0x2ca	; 0x2ca <datastreamer_transmit>

		/* State */
		u8temp_output = get_sensor_state(count_bytes_out);
     39c:	89 81       	ldd	r24, Y+1	; 0x01
     39e:	9a 81       	ldd	r25, Y+2	; 0x02
     3a0:	0e 94 70 03 	call	0x6e0	; 0x6e0 <get_sensor_state>
		if (0u != (u8temp_output & 0x80)) {
     3a4:	88 23       	and	r24, r24
     3a6:	24 f4       	brge	.+8      	; 0x3b0 <datastreamer_output+0xc8>
			datastreamer_transmit(0x01);
     3a8:	81 e0       	ldi	r24, 0x01	; 1
     3aa:	0e 94 65 01 	call	0x2ca	; 0x2ca <datastreamer_transmit>
     3ae:	03 c0       	rjmp	.+6      	; 0x3b6 <datastreamer_output+0xce>
		} else {
			datastreamer_transmit(0x00);
     3b0:	80 e0       	ldi	r24, 0x00	; 0
     3b2:	0e 94 65 01 	call	0x2ca	; 0x2ca <datastreamer_transmit>
		}

		/* Threshold */
		datastreamer_transmit(qtlib_key_configs_set1[count_bytes_out].channel_threshold);
     3b6:	89 81       	ldd	r24, Y+1	; 0x01
     3b8:	9a 81       	ldd	r25, Y+2	; 0x02
     3ba:	fc 01       	movw	r30, r24
     3bc:	ee 0f       	add	r30, r30
     3be:	ff 1f       	adc	r31, r31
     3c0:	8e 0f       	add	r24, r30
     3c2:	9f 1f       	adc	r25, r31
     3c4:	fc 01       	movw	r30, r24
     3c6:	e2 5d       	subi	r30, 0xD2	; 210
     3c8:	ff 4b       	sbci	r31, 0xBF	; 191
     3ca:	80 81       	ld	r24, Z
     3cc:	0e 94 65 01 	call	0x2ca	; 0x2ca <datastreamer_transmit>
	// Start token
	datastreamer_transmit(0x55);

	// Frame Start
	datastreamer_transmit(sequence);
	for (count_bytes_out = 0u; count_bytes_out < DEF_NUM_CHANNELS; count_bytes_out++) {
     3d0:	89 81       	ldd	r24, Y+1	; 0x01
     3d2:	9a 81       	ldd	r25, Y+2	; 0x02
     3d4:	01 96       	adiw	r24, 0x01	; 1
     3d6:	89 83       	std	Y+1, r24	; 0x01
     3d8:	9a 83       	std	Y+2, r25	; 0x02
     3da:	89 81       	ldd	r24, Y+1	; 0x01
     3dc:	9a 81       	ldd	r25, Y+2	; 0x02
     3de:	03 97       	sbiw	r24, 0x03	; 3
     3e0:	08 f4       	brcc	.+2      	; 0x3e4 <datastreamer_output+0xfc>
     3e2:	ad cf       	rjmp	.-166    	; 0x33e <datastreamer_output+0x56>
		/* Threshold */
		datastreamer_transmit(qtlib_key_configs_set1[count_bytes_out].channel_threshold);
	}
#if (SCROLLER_MODULE_OUTPUT == 1)

	for (count_bytes_out = 0u; count_bytes_out < qtm_scroller_control1.qtm_scroller_group_config->num_scrollers;
     3e4:	19 82       	std	Y+1, r1	; 0x01
     3e6:	1a 82       	std	Y+2, r1	; 0x02
     3e8:	29 81       	ldd	r18, Y+1	; 0x01
     3ea:	3a 81       	ldd	r19, Y+2	; 0x02
     3ec:	e0 91 15 40 	lds	r30, 0x4015	; 0x804015 <qtm_scroller_control1+0x2>
     3f0:	f0 91 16 40 	lds	r31, 0x4016	; 0x804016 <qtm_scroller_control1+0x3>
     3f4:	82 81       	ldd	r24, Z+2	; 0x02
     3f6:	90 e0       	ldi	r25, 0x00	; 0
     3f8:	28 17       	cp	r18, r24
     3fa:	39 07       	cpc	r19, r25
     3fc:	08 f0       	brcs	.+2      	; 0x400 <__LOCK_REGION_LENGTH__>
     3fe:	78 c0       	rjmp	.+240    	; 0x4f0 <__LOCK_REGION_LENGTH__+0xf0>
	     count_bytes_out++) {

		/* Slider State */
		u8temp_output = qtm_scroller_control1.qtm_scroller_data[count_bytes_out].scroller_status;
     400:	03 e1       	ldi	r16, 0x13	; 19
     402:	10 e4       	ldi	r17, 0x40	; 64
     404:	89 81       	ldd	r24, Y+1	; 0x01
     406:	9a 81       	ldd	r25, Y+2	; 0x02
     408:	fc 01       	movw	r30, r24
     40a:	ee 0f       	add	r30, r30
     40c:	ff 1f       	adc	r31, r31
     40e:	ee 0f       	add	r30, r30
     410:	ff 1f       	adc	r31, r31
     412:	ee 0f       	add	r30, r30
     414:	ff 1f       	adc	r31, r31
     416:	8e 0f       	add	r24, r30
     418:	9f 1f       	adc	r25, r31
     41a:	d8 01       	movw	r26, r16
     41c:	14 96       	adiw	r26, 0x04	; 4
     41e:	ed 91       	ld	r30, X+
     420:	fc 91       	ld	r31, X
     422:	15 97       	sbiw	r26, 0x05	; 5
     424:	e8 0f       	add	r30, r24
     426:	f9 1f       	adc	r31, r25
		if (0u != (u8temp_output & 0x01)) {
     428:	80 81       	ld	r24, Z
     42a:	80 ff       	sbrs	r24, 0
     42c:	04 c0       	rjmp	.+8      	; 0x436 <__LOCK_REGION_LENGTH__+0x36>
			datastreamer_transmit(0x01);
     42e:	81 e0       	ldi	r24, 0x01	; 1
     430:	0e 94 65 01 	call	0x2ca	; 0x2ca <datastreamer_transmit>
     434:	03 c0       	rjmp	.+6      	; 0x43c <__LOCK_REGION_LENGTH__+0x3c>
		} else {
			datastreamer_transmit(0x00);
     436:	80 e0       	ldi	r24, 0x00	; 0
     438:	0e 94 65 01 	call	0x2ca	; 0x2ca <datastreamer_transmit>
		}

		/* Slider Delta */
		u16temp_output = qtm_scroller_control1.qtm_scroller_data[count_bytes_out].contact_size;
     43c:	e9 81       	ldd	r30, Y+1	; 0x01
     43e:	fa 81       	ldd	r31, Y+2	; 0x02
     440:	cf 01       	movw	r24, r30
     442:	88 0f       	add	r24, r24
     444:	99 1f       	adc	r25, r25
     446:	88 0f       	add	r24, r24
     448:	99 1f       	adc	r25, r25
     44a:	88 0f       	add	r24, r24
     44c:	99 1f       	adc	r25, r25
     44e:	e8 0f       	add	r30, r24
     450:	f9 1f       	adc	r31, r25
     452:	d8 01       	movw	r26, r16
     454:	14 96       	adiw	r26, 0x04	; 4
     456:	8d 91       	ld	r24, X+
     458:	9c 91       	ld	r25, X
     45a:	15 97       	sbiw	r26, 0x05	; 5
     45c:	e8 0f       	add	r30, r24
     45e:	f9 1f       	adc	r31, r25
     460:	f0 84       	ldd	r15, Z+8	; 0x08
		datastreamer_transmit((uint8_t)u16temp_output);
     462:	87 81       	ldd	r24, Z+7	; 0x07
     464:	0e 94 65 01 	call	0x2ca	; 0x2ca <datastreamer_transmit>
		datastreamer_transmit((uint8_t)(u16temp_output >> 8u));
     468:	8f 2d       	mov	r24, r15
     46a:	0e 94 65 01 	call	0x2ca	; 0x2ca <datastreamer_transmit>

		/* Slider Threshold */
		u16temp_output = qtm_scroller_control1.qtm_scroller_config[count_bytes_out].contact_min_threshold;
     46e:	e9 81       	ldd	r30, Y+1	; 0x01
     470:	fa 81       	ldd	r31, Y+2	; 0x02
     472:	ee 0f       	add	r30, r30
     474:	ff 1f       	adc	r31, r31
     476:	ee 0f       	add	r30, r30
     478:	ff 1f       	adc	r31, r31
     47a:	ee 0f       	add	r30, r30
     47c:	ff 1f       	adc	r31, r31
     47e:	d8 01       	movw	r26, r16
     480:	16 96       	adiw	r26, 0x06	; 6
     482:	8d 91       	ld	r24, X+
     484:	9c 91       	ld	r25, X
     486:	17 97       	sbiw	r26, 0x07	; 7
     488:	e8 0f       	add	r30, r24
     48a:	f9 1f       	adc	r31, r25
     48c:	f7 80       	ldd	r15, Z+7	; 0x07
		datastreamer_transmit((uint8_t)u16temp_output);
     48e:	86 81       	ldd	r24, Z+6	; 0x06
     490:	0e 94 65 01 	call	0x2ca	; 0x2ca <datastreamer_transmit>
		datastreamer_transmit((uint8_t)(u16temp_output >> 8u));
     494:	8f 2d       	mov	r24, r15
     496:	0e 94 65 01 	call	0x2ca	; 0x2ca <datastreamer_transmit>

		/* filtered position */
		u16temp_output = qtm_scroller_control1.qtm_scroller_data[count_bytes_out].position;
     49a:	e9 81       	ldd	r30, Y+1	; 0x01
     49c:	fa 81       	ldd	r31, Y+2	; 0x02
     49e:	cf 01       	movw	r24, r30
     4a0:	88 0f       	add	r24, r24
     4a2:	99 1f       	adc	r25, r25
     4a4:	88 0f       	add	r24, r24
     4a6:	99 1f       	adc	r25, r25
     4a8:	88 0f       	add	r24, r24
     4aa:	99 1f       	adc	r25, r25
     4ac:	e8 0f       	add	r30, r24
     4ae:	f9 1f       	adc	r31, r25
     4b0:	d8 01       	movw	r26, r16
     4b2:	14 96       	adiw	r26, 0x04	; 4
     4b4:	8d 91       	ld	r24, X+
     4b6:	9c 91       	ld	r25, X
     4b8:	15 97       	sbiw	r26, 0x05	; 5
     4ba:	e8 0f       	add	r30, r24
     4bc:	f9 1f       	adc	r31, r25
     4be:	f6 80       	ldd	r15, Z+6	; 0x06
		datastreamer_transmit((uint8_t)(u16temp_output & 0x00FFu));
     4c0:	85 81       	ldd	r24, Z+5	; 0x05
     4c2:	0e 94 65 01 	call	0x2ca	; 0x2ca <datastreamer_transmit>
		datastreamer_transmit((uint8_t)((u16temp_output & 0xFF00u) >> 8u));
     4c6:	8f 2d       	mov	r24, r15
     4c8:	0e 94 65 01 	call	0x2ca	; 0x2ca <datastreamer_transmit>
		datastreamer_transmit(qtlib_key_configs_set1[count_bytes_out].channel_threshold);
	}
#if (SCROLLER_MODULE_OUTPUT == 1)

	for (count_bytes_out = 0u; count_bytes_out < qtm_scroller_control1.qtm_scroller_group_config->num_scrollers;
	     count_bytes_out++) {
     4cc:	89 81       	ldd	r24, Y+1	; 0x01
     4ce:	9a 81       	ldd	r25, Y+2	; 0x02
     4d0:	01 96       	adiw	r24, 0x01	; 1
     4d2:	89 83       	std	Y+1, r24	; 0x01
     4d4:	9a 83       	std	Y+2, r25	; 0x02
		/* Threshold */
		datastreamer_transmit(qtlib_key_configs_set1[count_bytes_out].channel_threshold);
	}
#if (SCROLLER_MODULE_OUTPUT == 1)

	for (count_bytes_out = 0u; count_bytes_out < qtm_scroller_control1.qtm_scroller_group_config->num_scrollers;
     4d6:	29 81       	ldd	r18, Y+1	; 0x01
     4d8:	3a 81       	ldd	r19, Y+2	; 0x02
     4da:	d8 01       	movw	r26, r16
     4dc:	12 96       	adiw	r26, 0x02	; 2
     4de:	ed 91       	ld	r30, X+
     4e0:	fc 91       	ld	r31, X
     4e2:	13 97       	sbiw	r26, 0x03	; 3
     4e4:	82 81       	ldd	r24, Z+2	; 0x02
     4e6:	90 e0       	ldi	r25, 0x00	; 0
     4e8:	28 17       	cp	r18, r24
     4ea:	39 07       	cpc	r19, r25
     4ec:	08 f4       	brcc	.+2      	; 0x4f0 <__LOCK_REGION_LENGTH__+0xf0>
     4ee:	8a cf       	rjmp	.-236    	; 0x404 <__LOCK_REGION_LENGTH__+0x4>
		datastreamer_transmit((uint8_t)((u16temp_output & 0xFF00u) >> 8u));
	}
#endif

	/* Other Debug Parameters */
	datastreamer_transmit(module_error_code);
     4f0:	80 91 da 40 	lds	r24, 0x40DA	; 0x8040da <module_error_code>
     4f4:	0e 94 65 01 	call	0x2ca	; 0x2ca <datastreamer_transmit>

	/* Frame End */
	datastreamer_transmit(sequence++);
     4f8:	80 91 d8 40 	lds	r24, 0x40D8	; 0x8040d8 <sequence.4923>
     4fc:	91 e0       	ldi	r25, 0x01	; 1
     4fe:	98 0f       	add	r25, r24
     500:	90 93 d8 40 	sts	0x40D8, r25	; 0x8040d8 <sequence.4923>
     504:	0e 94 65 01 	call	0x2ca	; 0x2ca <datastreamer_transmit>

	/* End token */
	datastreamer_transmit(~0x55);
     508:	8a ea       	ldi	r24, 0xAA	; 170
     50a:	0e 94 65 01 	call	0x2ca	; 0x2ca <datastreamer_transmit>
}
     50e:	0f 90       	pop	r0
     510:	0f 90       	pop	r0
     512:	df 91       	pop	r29
     514:	cf 91       	pop	r28
     516:	1f 91       	pop	r17
     518:	0f 91       	pop	r16
     51a:	ff 90       	pop	r15
     51c:	ef 90       	pop	r14
     51e:	08 95       	ret

00000520 <qtm_measure_complete_callback>:
{
	/* Calibrate Node */
	qtm_calibrate_sensor_node(&qtlib_acq_set1, sensor_node);
	/* Initialize key */
	qtm_init_sensor_key(&qtlib_key_set1, sensor_node, &ptc_qtlib_node_stat1[sensor_node]);
}
     520:	81 e0       	ldi	r24, 0x01	; 1
     522:	80 93 dc 40 	sts	0x40DC, r24	; 0x8040dc <touch_postprocess_request>
     526:	08 95       	ret

00000528 <Timer_set_period>:
     528:	e0 e4       	ldi	r30, 0x40	; 64
     52a:	f1 e0       	ldi	r31, 0x01	; 1
     52c:	91 81       	ldd	r25, Z+1	; 0x01
     52e:	92 fd       	sbrc	r25, 2
     530:	fd cf       	rjmp	.-6      	; 0x52c <Timer_set_period+0x4>
     532:	90 e0       	ldi	r25, 0x00	; 0
     534:	80 93 4a 01 	sts	0x014A, r24	; 0x80014a <__TEXT_REGION_LENGTH__+0x7e014a>
     538:	90 93 4b 01 	sts	0x014B, r25	; 0x80014b <__TEXT_REGION_LENGTH__+0x7e014b>
     53c:	08 95       	ret

0000053e <touch_init>:
     53e:	0f 93       	push	r16
     540:	1f 93       	push	r17
     542:	cf 93       	push	r28
     544:	df 93       	push	r29
     546:	80 e2       	ldi	r24, 0x20	; 32
     548:	0e 94 94 02 	call	0x528	; 0x528 <Timer_set_period>
     54c:	e1 e3       	ldi	r30, 0x31	; 49
     54e:	f4 e0       	ldi	r31, 0x04	; 4
     550:	80 81       	ld	r24, Z
     552:	87 7f       	andi	r24, 0xF7	; 247
     554:	80 83       	st	Z, r24
     556:	80 81       	ld	r24, Z
     558:	88 7f       	andi	r24, 0xF8	; 248
     55a:	84 60       	ori	r24, 0x04	; 4
     55c:	80 83       	st	Z, r24
     55e:	e7 e1       	ldi	r30, 0x17	; 23
     560:	f4 e0       	ldi	r31, 0x04	; 4
     562:	80 81       	ld	r24, Z
     564:	87 7f       	andi	r24, 0xF7	; 247
     566:	80 83       	st	Z, r24
     568:	80 81       	ld	r24, Z
     56a:	88 7f       	andi	r24, 0xF8	; 248
     56c:	84 60       	ori	r24, 0x04	; 4
     56e:	80 83       	st	Z, r24
     570:	e0 e3       	ldi	r30, 0x30	; 48
     572:	f4 e0       	ldi	r31, 0x04	; 4
     574:	80 81       	ld	r24, Z
     576:	87 7f       	andi	r24, 0xF7	; 247
     578:	80 83       	st	Z, r24
     57a:	80 81       	ld	r24, Z
     57c:	88 7f       	andi	r24, 0xF8	; 248
     57e:	84 60       	ori	r24, 0x04	; 4
     580:	80 83       	st	Z, r24
     582:	81 e4       	ldi	r24, 0x41	; 65
     584:	90 e4       	ldi	r25, 0x40	; 64
     586:	0e 94 34 10 	call	0x2068	; 0x2068 <qtm_ptc_init_acquisition_module>
     58a:	86 e0       	ldi	r24, 0x06	; 6
     58c:	91 e4       	ldi	r25, 0x41	; 65
     58e:	0e 94 eb 10 	call	0x21d6	; 0x21d6 <qtm_ptc_qtlib_assign_signal_memory>
     592:	c0 e0       	ldi	r28, 0x00	; 0
     594:	d0 e0       	ldi	r29, 0x00	; 0
     596:	be 01       	movw	r22, r28
     598:	81 e4       	ldi	r24, 0x41	; 65
     59a:	90 e4       	ldi	r25, 0x40	; 64
     59c:	0e 94 65 11 	call	0x22ca	; 0x22ca <qtm_enable_sensor_node>
     5a0:	be 01       	movw	r22, r28
     5a2:	81 e4       	ldi	r24, 0x41	; 65
     5a4:	90 e4       	ldi	r25, 0x40	; 64
     5a6:	0e 94 84 11 	call	0x2308	; 0x2308 <qtm_calibrate_sensor_node>
     5aa:	21 96       	adiw	r28, 0x01	; 1
     5ac:	c3 30       	cpi	r28, 0x03	; 3
     5ae:	d1 05       	cpc	r29, r1
     5b0:	91 f7       	brne	.-28     	; 0x596 <touch_init+0x58>
     5b2:	0e ee       	ldi	r16, 0xEE	; 238
     5b4:	10 e4       	ldi	r17, 0x40	; 64
     5b6:	c0 e0       	ldi	r28, 0x00	; 0
     5b8:	a8 01       	movw	r20, r16
     5ba:	6c 2f       	mov	r22, r28
     5bc:	86 e2       	ldi	r24, 0x26	; 38
     5be:	90 e4       	ldi	r25, 0x40	; 64
     5c0:	0e 94 d3 04 	call	0x9a6	; 0x9a6 <qtm_init_sensor_key>
     5c4:	cf 5f       	subi	r28, 0xFF	; 255
     5c6:	0b 5f       	subi	r16, 0xFB	; 251
     5c8:	1f 4f       	sbci	r17, 0xFF	; 255
     5ca:	c3 30       	cpi	r28, 0x03	; 3
     5cc:	a9 f7       	brne	.-22     	; 0x5b8 <touch_init+0x7a>
     5ce:	83 e1       	ldi	r24, 0x13	; 19
     5d0:	90 e4       	ldi	r25, 0x40	; 64
     5d2:	0e 94 c1 08 	call	0x1182	; 0x1182 <qtm_init_scroller_module>
     5d6:	0e 94 64 01 	call	0x2c8	; 0x2c8 <datastreamer_init>
     5da:	df 91       	pop	r29
     5dc:	cf 91       	pop	r28
     5de:	1f 91       	pop	r17
     5e0:	0f 91       	pop	r16
     5e2:	08 95       	ret

000005e4 <touch_process>:
     5e4:	80 91 dd 40 	lds	r24, 0x40DD	; 0x8040dd <time_to_measure_touch_flag>
     5e8:	81 30       	cpi	r24, 0x01	; 1
     5ea:	51 f4       	brne	.+20     	; 0x600 <touch_process+0x1c>
     5ec:	60 e9       	ldi	r22, 0x90	; 144
     5ee:	72 e0       	ldi	r23, 0x02	; 2
     5f0:	81 e4       	ldi	r24, 0x41	; 65
     5f2:	90 e4       	ldi	r25, 0x40	; 64
     5f4:	0e 94 f5 10 	call	0x21ea	; 0x21ea <qtm_ptc_start_measurement_seq>
     5f8:	81 11       	cpse	r24, r1
     5fa:	02 c0       	rjmp	.+4      	; 0x600 <touch_process+0x1c>
     5fc:	10 92 dd 40 	sts	0x40DD, r1	; 0x8040dd <time_to_measure_touch_flag>
     600:	80 91 dc 40 	lds	r24, 0x40DC	; 0x8040dc <touch_postprocess_request>
     604:	81 30       	cpi	r24, 0x01	; 1
     606:	91 f5       	brne	.+100    	; 0x66c <touch_process+0x88>
     608:	10 92 dc 40 	sts	0x40DC, r1	; 0x8040dc <touch_postprocess_request>
     60c:	0e 94 b2 0d 	call	0x1b64	; 0x1b64 <qtm_acquisition_process>
     610:	81 11       	cpse	r24, r1
     612:	17 c0       	rjmp	.+46     	; 0x642 <touch_process+0x5e>
     614:	86 e2       	ldi	r24, 0x26	; 38
     616:	90 e4       	ldi	r25, 0x40	; 64
     618:	0e 94 f2 04 	call	0x9e4	; 0x9e4 <qtm_key_sensors_process>
     61c:	88 23       	and	r24, r24
     61e:	29 f0       	breq	.+10     	; 0x62a <touch_process+0x46>
     620:	82 e0       	ldi	r24, 0x02	; 2
     622:	80 93 da 40 	sts	0x40DA, r24	; 0x8040da <module_error_code>
     626:	0e 94 74 01 	call	0x2e8	; 0x2e8 <datastreamer_output>
     62a:	83 e1       	ldi	r24, 0x13	; 19
     62c:	90 e4       	ldi	r25, 0x40	; 64
     62e:	0e 94 01 09 	call	0x1202	; 0x1202 <qtm_scroller_process>
     632:	88 23       	and	r24, r24
     634:	59 f0       	breq	.+22     	; 0x64c <touch_process+0x68>
     636:	83 e0       	ldi	r24, 0x03	; 3
     638:	80 93 da 40 	sts	0x40DA, r24	; 0x8040da <module_error_code>
     63c:	0e 94 74 01 	call	0x2e8	; 0x2e8 <datastreamer_output>
     640:	05 c0       	rjmp	.+10     	; 0x64c <touch_process+0x68>
     642:	81 e0       	ldi	r24, 0x01	; 1
     644:	80 93 da 40 	sts	0x40DA, r24	; 0x8040da <module_error_code>
     648:	0e 94 74 01 	call	0x2e8	; 0x2e8 <datastreamer_output>
     64c:	e0 91 26 40 	lds	r30, 0x4026	; 0x804026 <qtlib_key_set1>
     650:	f0 91 27 40 	lds	r31, 0x4027	; 0x804027 <qtlib_key_set1+0x1>
     654:	80 81       	ld	r24, Z
     656:	88 23       	and	r24, r24
     658:	24 f4       	brge	.+8      	; 0x662 <touch_process+0x7e>
     65a:	81 e0       	ldi	r24, 0x01	; 1
     65c:	80 93 dd 40 	sts	0x40DD, r24	; 0x8040dd <time_to_measure_touch_flag>
     660:	03 c0       	rjmp	.+6      	; 0x668 <touch_process+0x84>
     662:	81 e0       	ldi	r24, 0x01	; 1
     664:	80 93 db 40 	sts	0x40DB, r24	; 0x8040db <measurement_done_touch>
     668:	0e 94 74 01 	call	0x2e8	; 0x2e8 <datastreamer_output>
     66c:	08 95       	ret

0000066e <touch_timer_handler>:
     66e:	80 91 ed 40 	lds	r24, 0x40ED	; 0x8040ed <interrupt_cnt>
     672:	8f 5f       	subi	r24, 0xFF	; 255
     674:	84 31       	cpi	r24, 0x14	; 20
     676:	18 f4       	brcc	.+6      	; 0x67e <touch_timer_handler+0x10>
     678:	80 93 ed 40 	sts	0x40ED, r24	; 0x8040ed <interrupt_cnt>
     67c:	08 95       	ret
     67e:	10 92 ed 40 	sts	0x40ED, r1	; 0x8040ed <interrupt_cnt>
     682:	81 e0       	ldi	r24, 0x01	; 1
     684:	80 93 dd 40 	sts	0x40DD, r24	; 0x8040dd <time_to_measure_touch_flag>
     688:	84 e1       	ldi	r24, 0x14	; 20
     68a:	90 e0       	ldi	r25, 0x00	; 0
     68c:	0e 94 c8 04 	call	0x990	; 0x990 <qtm_update_qtlib_timer>
     690:	08 95       	ret

00000692 <get_sensor_node_signal>:
     692:	9c 01       	movw	r18, r24
     694:	22 0f       	add	r18, r18
     696:	33 1f       	adc	r19, r19
     698:	22 0f       	add	r18, r18
     69a:	33 1f       	adc	r19, r19
     69c:	82 0f       	add	r24, r18
     69e:	93 1f       	adc	r25, r19
     6a0:	fc 01       	movw	r30, r24
     6a2:	e2 51       	subi	r30, 0x12	; 18
     6a4:	ff 4b       	sbci	r31, 0xBF	; 191
     6a6:	81 81       	ldd	r24, Z+1	; 0x01
     6a8:	92 81       	ldd	r25, Z+2	; 0x02
     6aa:	08 95       	ret

000006ac <get_sensor_node_reference>:
     6ac:	9c 01       	movw	r18, r24
     6ae:	22 0f       	add	r18, r18
     6b0:	33 1f       	adc	r19, r19
     6b2:	82 0f       	add	r24, r18
     6b4:	93 1f       	adc	r25, r19
     6b6:	fc 01       	movw	r30, r24
     6b8:	ee 0f       	add	r30, r30
     6ba:	ff 1f       	adc	r31, r31
     6bc:	e4 5f       	subi	r30, 0xF4	; 244
     6be:	fe 4b       	sbci	r31, 0xBE	; 190
     6c0:	84 81       	ldd	r24, Z+4	; 0x04
     6c2:	95 81       	ldd	r25, Z+5	; 0x05
     6c4:	08 95       	ret

000006c6 <get_sensor_cc_val>:
     6c6:	9c 01       	movw	r18, r24
     6c8:	22 0f       	add	r18, r18
     6ca:	33 1f       	adc	r19, r19
     6cc:	22 0f       	add	r18, r18
     6ce:	33 1f       	adc	r19, r19
     6d0:	82 0f       	add	r24, r18
     6d2:	93 1f       	adc	r25, r19
     6d4:	fc 01       	movw	r30, r24
     6d6:	e2 51       	subi	r30, 0x12	; 18
     6d8:	ff 4b       	sbci	r31, 0xBF	; 191
     6da:	83 81       	ldd	r24, Z+3	; 0x03
     6dc:	94 81       	ldd	r25, Z+4	; 0x04
     6de:	08 95       	ret

000006e0 <get_sensor_state>:
     6e0:	9c 01       	movw	r18, r24
     6e2:	22 0f       	add	r18, r18
     6e4:	33 1f       	adc	r19, r19
     6e6:	82 0f       	add	r24, r18
     6e8:	93 1f       	adc	r25, r19
     6ea:	88 0f       	add	r24, r24
     6ec:	99 1f       	adc	r25, r25
     6ee:	e0 91 2a 40 	lds	r30, 0x402A	; 0x80402a <qtlib_key_set1+0x4>
     6f2:	f0 91 2b 40 	lds	r31, 0x402B	; 0x80402b <qtlib_key_set1+0x5>
     6f6:	e8 0f       	add	r30, r24
     6f8:	f9 1f       	adc	r31, r25
     6fa:	80 81       	ld	r24, Z
     6fc:	08 95       	ret

000006fe <get_scroller_state>:

uint8_t get_scroller_state(uint16_t sensor_node)
{
	return (qtm_scroller_control1.qtm_scroller_data[sensor_node].scroller_status);
     6fe:	9c 01       	movw	r18, r24
     700:	22 0f       	add	r18, r18
     702:	33 1f       	adc	r19, r19
     704:	22 0f       	add	r18, r18
     706:	33 1f       	adc	r19, r19
     708:	22 0f       	add	r18, r18
     70a:	33 1f       	adc	r19, r19
     70c:	82 0f       	add	r24, r18
     70e:	93 1f       	adc	r25, r19
     710:	e0 91 17 40 	lds	r30, 0x4017	; 0x804017 <qtm_scroller_control1+0x4>
     714:	f0 91 18 40 	lds	r31, 0x4018	; 0x804018 <qtm_scroller_control1+0x5>
     718:	e8 0f       	add	r30, r24
     71a:	f9 1f       	adc	r31, r25
}
     71c:	80 81       	ld	r24, Z
     71e:	08 95       	ret

00000720 <get_scroller_position>:

uint16_t get_scroller_position(uint16_t sensor_node)
{
	return (qtm_scroller_control1.qtm_scroller_data[sensor_node].position);
     720:	9c 01       	movw	r18, r24
     722:	22 0f       	add	r18, r18
     724:	33 1f       	adc	r19, r19
     726:	22 0f       	add	r18, r18
     728:	33 1f       	adc	r19, r19
     72a:	22 0f       	add	r18, r18
     72c:	33 1f       	adc	r19, r19
     72e:	82 0f       	add	r24, r18
     730:	93 1f       	adc	r25, r19
     732:	e0 91 17 40 	lds	r30, 0x4017	; 0x804017 <qtm_scroller_control1+0x4>
     736:	f0 91 18 40 	lds	r31, 0x4018	; 0x804018 <qtm_scroller_control1+0x5>
     73a:	e8 0f       	add	r30, r24
     73c:	f9 1f       	adc	r31, r25
}
     73e:	85 81       	ldd	r24, Z+5	; 0x05
     740:	96 81       	ldd	r25, Z+6	; 0x06
     742:	08 95       	ret

00000744 <__vector_27>:
#if defined(__ICCAVR__)
ISR(QTML_PTC_vect_iar)
#else
ISR(QTML_PTC_vect)
#endif
{
     744:	1f 92       	push	r1
     746:	0f 92       	push	r0
     748:	0f b6       	in	r0, 0x3f	; 63
     74a:	0f 92       	push	r0
     74c:	11 24       	eor	r1, r1
     74e:	0b b6       	in	r0, 0x3b	; 59
     750:	0f 92       	push	r0
     752:	2f 93       	push	r18
     754:	3f 93       	push	r19
     756:	4f 93       	push	r20
     758:	5f 93       	push	r21
     75a:	6f 93       	push	r22
     75c:	7f 93       	push	r23
     75e:	8f 93       	push	r24
     760:	9f 93       	push	r25
     762:	af 93       	push	r26
     764:	bf 93       	push	r27
     766:	ef 93       	push	r30
     768:	ff 93       	push	r31
	qtm_avr_da_ptc_handler_eoc();
     76a:	0e 94 0b 12 	call	0x2416	; 0x2416 <qtm_avr_da_ptc_handler_eoc>
}
     76e:	ff 91       	pop	r31
     770:	ef 91       	pop	r30
     772:	bf 91       	pop	r27
     774:	af 91       	pop	r26
     776:	9f 91       	pop	r25
     778:	8f 91       	pop	r24
     77a:	7f 91       	pop	r23
     77c:	6f 91       	pop	r22
     77e:	5f 91       	pop	r21
     780:	4f 91       	pop	r20
     782:	3f 91       	pop	r19
     784:	2f 91       	pop	r18
     786:	0f 90       	pop	r0
     788:	0b be       	out	0x3b, r0	; 59
     78a:	0f 90       	pop	r0
     78c:	0f be       	out	0x3f, r0	; 63
     78e:	0f 90       	pop	r0
     790:	1f 90       	pop	r1
     792:	18 95       	reti

00000794 <BOD_init>:
int8_t BOD_init()
{

	// ccp_write_io((void*)&(BOD.CTRLA),BOD_SLEEP_DIS_gc /* Disabled */);

	BOD.INTCTRL = 0 << BOD_VLMIE_bp        /* voltage level monitor interrrupt enable: disabled */
     794:	10 92 89 00 	sts	0x0089, r1	; 0x800089 <__TEXT_REGION_LENGTH__+0x7e0089>
	              | BOD_VLMCFG_FALLING_gc; /* Interrupt when supply goes below VLM level */

	// BOD.VLMCTRLA = BOD_VLMLVL_5ABOVE_gc; /* VLM threshold 5% above BOD level */

	return 0;
}
     798:	80 e0       	ldi	r24, 0x00	; 0
     79a:	08 95       	ret

0000079c <CLKCTRL_init>:
 *       on calling convention. The memory model is not visible to the
 *       preprocessor, so it must be defined in the Assembler preprocessor directives.
 */
static inline void ccp_write_io(void *addr, uint8_t value)
{
	protected_write_io(addr, CCP_IOREG_gc, value);
     79c:	44 e2       	ldi	r20, 0x24	; 36
     79e:	68 ed       	ldi	r22, 0xD8	; 216
     7a0:	88 e6       	ldi	r24, 0x68	; 104
     7a2:	90 e0       	ldi	r25, 0x00	; 0
     7a4:	0e 94 2a 04 	call	0x854	; 0x854 <protected_write_io>
	//		 | 0 << CLKCTRL_CLKOUT_bp /* System clock out: disabled */);

	// ccp_write_io((void*)&(CLKCTRL.MCLKLOCK),0 << CLKCTRL_LOCKEN_bp /* lock enable: disabled */);

	return 0;
}
     7a8:	80 e0       	ldi	r24, 0x00	; 0
     7aa:	08 95       	ret

000007ac <CPUINT_init>:

	// CPUINT.LVL0PRI = 0x0 << CPUINT_LVL0PRI_gp; /* Interrupt Level Priority: 0x0 */

	// CPUINT.LVL1VEC = 0x0 << CPUINT_LVL1VEC_gp; /* Interrupt Vector with High Priority: 0x0 */

	ENABLE_INTERRUPTS();
     7ac:	78 94       	sei

	return 0;
}
     7ae:	80 e0       	ldi	r24, 0x00	; 0
     7b0:	08 95       	ret

000007b2 <mcu_init>:
#ifdef __cplusplus
extern "C" {
#endif

void mcu_init(void)
{
     7b2:	e0 e1       	ldi	r30, 0x10	; 16
     7b4:	f4 e0       	ldi	r31, 0x04	; 4
	 * peripheral if used */

	/* Set all pins to low power mode */

	for (uint8_t i = 0; i < 8; i++) {
		*((uint8_t *)&PORTA + 0x10 + i) |= 1 << PORT_PULLUPEN_bp;
     7b6:	80 81       	ld	r24, Z
     7b8:	88 60       	ori	r24, 0x08	; 8
     7ba:	81 93       	st	Z+, r24
	 * disables all peripherals to save power. Driver shall enable
	 * peripheral if used */

	/* Set all pins to low power mode */

	for (uint8_t i = 0; i < 8; i++) {
     7bc:	e8 31       	cpi	r30, 0x18	; 24
     7be:	84 e0       	ldi	r24, 0x04	; 4
     7c0:	f8 07       	cpc	r31, r24
     7c2:	c9 f7       	brne	.-14     	; 0x7b6 <mcu_init+0x4>
     7c4:	e0 e3       	ldi	r30, 0x30	; 48
     7c6:	f4 e0       	ldi	r31, 0x04	; 4
		*((uint8_t *)&PORTA + 0x10 + i) |= 1 << PORT_PULLUPEN_bp;
	}

	for (uint8_t i = 0; i < 8; i++) {
		*((uint8_t *)&PORTB + 0x10 + i) |= 1 << PORT_PULLUPEN_bp;
     7c8:	80 81       	ld	r24, Z
     7ca:	88 60       	ori	r24, 0x08	; 8
     7cc:	81 93       	st	Z+, r24

	for (uint8_t i = 0; i < 8; i++) {
		*((uint8_t *)&PORTA + 0x10 + i) |= 1 << PORT_PULLUPEN_bp;
	}

	for (uint8_t i = 0; i < 8; i++) {
     7ce:	e8 33       	cpi	r30, 0x38	; 56
     7d0:	84 e0       	ldi	r24, 0x04	; 4
     7d2:	f8 07       	cpc	r31, r24
     7d4:	c9 f7       	brne	.-14     	; 0x7c8 <mcu_init+0x16>
     7d6:	e0 e5       	ldi	r30, 0x50	; 80
     7d8:	f4 e0       	ldi	r31, 0x04	; 4
		*((uint8_t *)&PORTB + 0x10 + i) |= 1 << PORT_PULLUPEN_bp;
	}

	for (uint8_t i = 0; i < 8; i++) {
		*((uint8_t *)&PORTC + 0x10 + i) |= 1 << PORT_PULLUPEN_bp;
     7da:	80 81       	ld	r24, Z
     7dc:	88 60       	ori	r24, 0x08	; 8
     7de:	81 93       	st	Z+, r24

	for (uint8_t i = 0; i < 8; i++) {
		*((uint8_t *)&PORTB + 0x10 + i) |= 1 << PORT_PULLUPEN_bp;
	}

	for (uint8_t i = 0; i < 8; i++) {
     7e0:	e8 35       	cpi	r30, 0x58	; 88
     7e2:	84 e0       	ldi	r24, 0x04	; 4
     7e4:	f8 07       	cpc	r31, r24
     7e6:	c9 f7       	brne	.-14     	; 0x7da <mcu_init+0x28>
     7e8:	e0 e7       	ldi	r30, 0x70	; 112
     7ea:	f4 e0       	ldi	r31, 0x04	; 4
		*((uint8_t *)&PORTC + 0x10 + i) |= 1 << PORT_PULLUPEN_bp;
	}

	for (uint8_t i = 0; i < 8; i++) {
		*((uint8_t *)&PORTD + 0x10 + i) |= 1 << PORT_PULLUPEN_bp;
     7ec:	80 81       	ld	r24, Z
     7ee:	88 60       	ori	r24, 0x08	; 8
     7f0:	81 93       	st	Z+, r24

	for (uint8_t i = 0; i < 8; i++) {
		*((uint8_t *)&PORTC + 0x10 + i) |= 1 << PORT_PULLUPEN_bp;
	}

	for (uint8_t i = 0; i < 8; i++) {
     7f2:	e8 37       	cpi	r30, 0x78	; 120
     7f4:	84 e0       	ldi	r24, 0x04	; 4
     7f6:	f8 07       	cpc	r31, r24
     7f8:	c9 f7       	brne	.-14     	; 0x7ec <mcu_init+0x3a>
     7fa:	e0 e9       	ldi	r30, 0x90	; 144
     7fc:	f4 e0       	ldi	r31, 0x04	; 4
		*((uint8_t *)&PORTD + 0x10 + i) |= 1 << PORT_PULLUPEN_bp;
	}

	for (uint8_t i = 0; i < 8; i++) {
		*((uint8_t *)&PORTE + 0x10 + i) |= 1 << PORT_PULLUPEN_bp;
     7fe:	80 81       	ld	r24, Z
     800:	88 60       	ori	r24, 0x08	; 8
     802:	81 93       	st	Z+, r24

	for (uint8_t i = 0; i < 8; i++) {
		*((uint8_t *)&PORTD + 0x10 + i) |= 1 << PORT_PULLUPEN_bp;
	}

	for (uint8_t i = 0; i < 8; i++) {
     804:	e8 39       	cpi	r30, 0x98	; 152
     806:	84 e0       	ldi	r24, 0x04	; 4
     808:	f8 07       	cpc	r31, r24
     80a:	c9 f7       	brne	.-14     	; 0x7fe <mcu_init+0x4c>
     80c:	e0 eb       	ldi	r30, 0xB0	; 176
     80e:	f4 e0       	ldi	r31, 0x04	; 4
		*((uint8_t *)&PORTE + 0x10 + i) |= 1 << PORT_PULLUPEN_bp;
	}

	for (uint8_t i = 0; i < 8; i++) {
		*((uint8_t *)&PORTF + 0x10 + i) |= 1 << PORT_PULLUPEN_bp;
     810:	80 81       	ld	r24, Z
     812:	88 60       	ori	r24, 0x08	; 8
     814:	81 93       	st	Z+, r24

	for (uint8_t i = 0; i < 8; i++) {
		*((uint8_t *)&PORTE + 0x10 + i) |= 1 << PORT_PULLUPEN_bp;
	}

	for (uint8_t i = 0; i < 8; i++) {
     816:	e8 3b       	cpi	r30, 0xB8	; 184
     818:	84 e0       	ldi	r24, 0x04	; 4
     81a:	f8 07       	cpc	r31, r24
     81c:	c9 f7       	brne	.-14     	; 0x810 <mcu_init+0x5e>
		*((uint8_t *)&PORTF + 0x10 + i) |= 1 << PORT_PULLUPEN_bp;
	}
}
     81e:	08 95       	ret

00000820 <USART_initialization>:
 */
static inline void PORTC_set_pin_dir(const uint8_t pin, const enum port_dir dir)
{
	switch (dir) {
	case PORT_DIR_IN:
		VPORTC.DIR &= ~(1 << pin);
     820:	41 98       	cbi	0x08, 1	; 8
	volatile uint8_t *port_pin_ctrl = ((uint8_t *)&PORTC + 0x10 + pin);

	if (pull_mode == PORT_PULL_UP) {
		*port_pin_ctrl |= PORT_PULLUPEN_bm;
	} else if (pull_mode == PORT_PULL_OFF) {
		*port_pin_ctrl &= ~PORT_PULLUPEN_bm;
     822:	e1 e5       	ldi	r30, 0x51	; 81
     824:	f4 e0       	ldi	r31, 0x04	; 4
     826:	80 81       	ld	r24, Z
     828:	87 7f       	andi	r24, 0xF7	; 247
     82a:	80 83       	st	Z, r24
static inline void PORTC_set_pin_level(const uint8_t pin, const bool level)
{
	if (level == true) {
		VPORTC.OUT |= (1 << pin);
	} else {
		VPORTC.OUT &= ~(1 << pin);
     82c:	48 98       	cbi	0x09, 0	; 9
	switch (dir) {
	case PORT_DIR_IN:
		VPORTC.DIR &= ~(1 << pin);
		break;
	case PORT_DIR_OUT:
		VPORTC.DIR |= (1 << pin);
     82e:	40 9a       	sbi	0x08, 0	; 8
	    // <true"> High
	    false);

	PC0_set_dir(PORT_DIR_OUT);

	USART_init();
     830:	0e 94 3f 04 	call	0x87e	; 0x87e <USART_init>
     834:	08 95       	ret

00000836 <system_init>:
/**
 * \brief System initialization
 */
void system_init()
{
	mcu_init();
     836:	0e 94 d9 03 	call	0x7b2	; 0x7b2 <mcu_init>

	CLKCTRL_init();
     83a:	0e 94 ce 03 	call	0x79c	; 0x79c <CLKCTRL_init>

	USART_initialization();
     83e:	0e 94 10 04 	call	0x820	; 0x820 <USART_initialization>

	SLPCTRL_init();
     842:	0e 94 3d 04 	call	0x87a	; 0x87a <SLPCTRL_init>

	CPUINT_init();
     846:	0e 94 d6 03 	call	0x7ac	; 0x7ac <CPUINT_init>

	Timer_init();
     84a:	0e 94 2f 04 	call	0x85e	; 0x85e <Timer_init>

	BOD_init();
     84e:	0e 94 ca 03 	call	0x794	; 0x794 <BOD_init>
     852:	08 95       	ret

00000854 <protected_write_io>:
	PUBLIC_FUNCTION(protected_write_io)

#if defined(__GNUC__)
  
#ifdef RAMPZ
	out     _SFR_IO_ADDR(RAMPZ), r1         // Clear bits 23:16 of Z
     854:	1b be       	out	0x3b, r1	; 59
#endif
	movw    r30, r24                // Load addr into Z
     856:	fc 01       	movw	r30, r24
	out     CCP, r22                // Start CCP handshake
     858:	64 bf       	out	0x34, r22	; 52
	st      Z, r20                  // Write value to I/O register
     85a:	40 83       	st	Z, r20
	ret                             // Return to caller
     85c:	08 95       	ret

0000085e <Timer_init>:
 * \return Initialization status.
 */
int8_t Timer_init()
{

	while (RTC.STATUS > 0) { /* Wait for all register to be synchronized */
     85e:	e0 e4       	ldi	r30, 0x40	; 64
     860:	f1 e0       	ldi	r31, 0x01	; 1
     862:	81 81       	ldd	r24, Z+1	; 0x01
     864:	81 11       	cpse	r24, r1
     866:	fd cf       	rjmp	.-6      	; 0x862 <Timer_init+0x4>

	// RTC.CMP = 0x0; /* Compare: 0x0 */

	// RTC.CNT = 0x0; /* Counter: 0x0 */

	RTC.CTRLA = RTC_PRESCALER_DIV1_gc   /* 1 */
     868:	e0 e4       	ldi	r30, 0x40	; 64
     86a:	f1 e0       	ldi	r31, 0x01	; 1
     86c:	81 e8       	ldi	r24, 0x81	; 129
     86e:	80 83       	st	Z, r24
	            | 1 << RTC_RTCEN_bp     /* Enable: enabled */
	            | 1 << RTC_RUNSTDBY_bp; /* Run In Standby: enabled */

	// RTC.PER = 0xffff; /* Period: 0xffff */

	RTC.CLKSEL = RTC_CLKSEL_OSC32K_gc; /* Internal 32.768 kHz oscillator */
     870:	17 82       	std	Z+7, r1	; 0x07

	// RTC.DBGCTRL = 0 << RTC_DBGRUN_bp; /* Run in debug: disabled */

	RTC.INTCTRL = 1 << RTC_CMP_bp    /* Compare Match Interrupt enable: enabled */
     872:	82 e0       	ldi	r24, 0x02	; 2
     874:	82 83       	std	Z+2, r24	; 0x02
	// RTC.PITDBGCTRL = 0 << RTC_DBGRUN_bp; /* Run in debug: disabled */

	// RTC.PITINTCTRL = 0 << RTC_PI_bp; /* Periodic Interrupt: disabled */

	return 0;
}
     876:	80 e0       	ldi	r24, 0x00	; 0
     878:	08 95       	ret

0000087a <SLPCTRL_init>:

	// SLPCTRL.CTRLA = 0 << SLPCTRL_SEN_bp /* Sleep enable: disabled */
	//		 | SLPCTRL_SMODE_IDLE_gc; /* Idle mode */

	return 0;
}
     87a:	80 e0       	ldi	r24, 0x00	; 0
     87c:	08 95       	ret

0000087e <USART_init>:
uint8_t USART_read()
{
	while (!(USART1.STATUS & USART_RXCIF_bm))
		;
	return USART1.RXDATAL;
}
     87e:	e0 e2       	ldi	r30, 0x20	; 32
     880:	f8 e0       	ldi	r31, 0x08	; 8
     882:	84 ec       	ldi	r24, 0xC4	; 196
     884:	99 e0       	ldi	r25, 0x09	; 9
     886:	80 87       	std	Z+8, r24	; 0x08
     888:	91 87       	std	Z+9, r25	; 0x09
     88a:	80 ec       	ldi	r24, 0xC0	; 192
     88c:	86 83       	std	Z+6, r24	; 0x06
     88e:	80 e0       	ldi	r24, 0x00	; 0
     890:	08 95       	ret

00000892 <USART_is_tx_ready>:
     892:	80 91 24 08 	lds	r24, 0x0824	; 0x800824 <__TEXT_REGION_LENGTH__+0x7e0824>
     896:	85 fb       	bst	r24, 5
     898:	88 27       	eor	r24, r24
     89a:	80 f9       	bld	r24, 0
     89c:	08 95       	ret

0000089e <USART_is_tx_busy>:
     89e:	80 91 24 08 	lds	r24, 0x0824	; 0x800824 <__TEXT_REGION_LENGTH__+0x7e0824>
     8a2:	86 fb       	bst	r24, 6
     8a4:	88 27       	eor	r24, r24
     8a6:	80 f9       	bld	r24, 0
     8a8:	91 e0       	ldi	r25, 0x01	; 1
     8aa:	89 27       	eor	r24, r25
     8ac:	08 95       	ret

000008ae <USART_write>:
 *
 * \return Nothing
 */
void USART_write(const uint8_t data)
{
	while (!(USART1.STATUS & USART_DREIF_bm))
     8ae:	e0 e2       	ldi	r30, 0x20	; 32
     8b0:	f8 e0       	ldi	r31, 0x08	; 8
     8b2:	94 81       	ldd	r25, Z+4	; 0x04
     8b4:	95 ff       	sbrs	r25, 5
     8b6:	fd cf       	rjmp	.-6      	; 0x8b2 <USART_write+0x4>
		;
	USART1.TXDATAL = data;
     8b8:	80 93 22 08 	sts	0x0822, r24	; 0x800822 <__TEXT_REGION_LENGTH__+0x7e0822>
     8bc:	08 95       	ret

000008be <check_for_aks_block>:
     8be:	cf 92       	push	r12
     8c0:	df 92       	push	r13
     8c2:	ff 92       	push	r15
     8c4:	0f 93       	push	r16
     8c6:	1f 93       	push	r17
     8c8:	cf 93       	push	r28
     8ca:	df 93       	push	r29
     8cc:	ec 01       	movw	r28, r24
     8ce:	ae 81       	ldd	r26, Y+6	; 0x06
     8d0:	bf 81       	ldd	r27, Y+7	; 0x07
     8d2:	eb 01       	movw	r28, r22
     8d4:	cc 0f       	add	r28, r28
     8d6:	dd 1f       	adc	r29, r29
     8d8:	c6 0f       	add	r28, r22
     8da:	d7 1f       	adc	r29, r23
     8dc:	ca 0f       	add	r28, r26
     8de:	db 1f       	adc	r29, r27
     8e0:	fa 80       	ldd	r15, Y+2	; 0x02
     8e2:	fc 01       	movw	r30, r24
     8e4:	44 81       	ldd	r20, Z+4	; 0x04
     8e6:	55 81       	ldd	r21, Z+5	; 0x05
     8e8:	e6 e0       	ldi	r30, 0x06	; 6
     8ea:	e6 9f       	mul	r30, r22
     8ec:	90 01       	movw	r18, r0
     8ee:	e7 9f       	mul	r30, r23
     8f0:	30 0d       	add	r19, r0
     8f2:	11 24       	eor	r1, r1
     8f4:	8a 01       	movw	r16, r20
     8f6:	02 0f       	add	r16, r18
     8f8:	13 1f       	adc	r17, r19
     8fa:	f8 01       	movw	r30, r16
     8fc:	22 81       	ldd	r18, Z+2	; 0x02
     8fe:	33 81       	ldd	r19, Z+3	; 0x03
     900:	f9 01       	movw	r30, r18
     902:	21 81       	ldd	r18, Z+1	; 0x01
     904:	32 81       	ldd	r19, Z+2	; 0x02
     906:	f8 01       	movw	r30, r16
     908:	04 81       	ldd	r16, Z+4	; 0x04
     90a:	15 81       	ldd	r17, Z+5	; 0x05
     90c:	20 1b       	sub	r18, r16
     90e:	31 0b       	sbc	r19, r17
     910:	e8 81       	ld	r30, Y
     912:	2e 1b       	sub	r18, r30
     914:	31 09       	sbc	r19, r1
     916:	ec 01       	movw	r28, r24
     918:	ea 81       	ldd	r30, Y+2	; 0x02
     91a:	fb 81       	ldd	r31, Y+3	; 0x03
     91c:	00 81       	ld	r16, Z
     91e:	11 81       	ldd	r17, Z+1	; 0x01
     920:	fa 01       	movw	r30, r20
     922:	40 e0       	ldi	r20, 0x00	; 0
     924:	50 e0       	ldi	r21, 0x00	; 0
     926:	40 17       	cp	r20, r16
     928:	51 07       	cpc	r21, r17
     92a:	39 f1       	breq	.+78     	; 0x97a <check_for_aks_block+0xbc>
     92c:	46 17       	cp	r20, r22
     92e:	57 07       	cpc	r21, r23
     930:	f9 f0       	breq	.+62     	; 0x970 <check_for_aks_block+0xb2>
     932:	12 96       	adiw	r26, 0x02	; 2
     934:	8c 91       	ld	r24, X
     936:	12 97       	sbiw	r26, 0x02	; 2
     938:	f8 12       	cpse	r15, r24
     93a:	1a c0       	rjmp	.+52     	; 0x970 <check_for_aks_block+0xb2>
     93c:	80 81       	ld	r24, Z
     93e:	85 58       	subi	r24, 0x85	; 133
     940:	82 30       	cpi	r24, 0x02	; 2
     942:	e8 f0       	brcs	.+58     	; 0x97e <check_for_aks_block+0xc0>
     944:	c4 80       	ldd	r12, Z+4	; 0x04
     946:	d5 80       	ldd	r13, Z+5	; 0x05
     948:	82 81       	ldd	r24, Z+2	; 0x02
     94a:	93 81       	ldd	r25, Z+3	; 0x03
     94c:	ec 01       	movw	r28, r24
     94e:	89 81       	ldd	r24, Y+1	; 0x01
     950:	9a 81       	ldd	r25, Y+2	; 0x02
     952:	c8 16       	cp	r12, r24
     954:	d9 06       	cpc	r13, r25
     956:	60 f4       	brcc	.+24     	; 0x970 <check_for_aks_block+0xb2>
     958:	8c 19       	sub	r24, r12
     95a:	9d 09       	sbc	r25, r13
     95c:	cc 91       	ld	r28, X
     95e:	d0 e0       	ldi	r29, 0x00	; 0
     960:	c8 17       	cp	r28, r24
     962:	d9 07       	cpc	r29, r25
     964:	28 f4       	brcc	.+10     	; 0x970 <check_for_aks_block+0xb2>
     966:	8c 1b       	sub	r24, r28
     968:	9d 0b       	sbc	r25, r29
     96a:	28 17       	cp	r18, r24
     96c:	39 07       	cpc	r19, r25
     96e:	38 f0       	brcs	.+14     	; 0x97e <check_for_aks_block+0xc0>
     970:	4f 5f       	subi	r20, 0xFF	; 255
     972:	5f 4f       	sbci	r21, 0xFF	; 255
     974:	13 96       	adiw	r26, 0x03	; 3
     976:	36 96       	adiw	r30, 0x06	; 6
     978:	d6 cf       	rjmp	.-84     	; 0x926 <check_for_aks_block+0x68>
     97a:	80 e0       	ldi	r24, 0x00	; 0
     97c:	01 c0       	rjmp	.+2      	; 0x980 <check_for_aks_block+0xc2>
     97e:	81 e0       	ldi	r24, 0x01	; 1
     980:	df 91       	pop	r29
     982:	cf 91       	pop	r28
     984:	1f 91       	pop	r17
     986:	0f 91       	pop	r16
     988:	ff 90       	pop	r15
     98a:	df 90       	pop	r13
     98c:	cf 90       	pop	r12
     98e:	08 95       	ret

00000990 <qtm_update_qtlib_timer>:
     990:	20 91 de 40 	lds	r18, 0x40DE	; 0x8040de <qtm_local_ms_timecount>
     994:	30 91 df 40 	lds	r19, 0x40DF	; 0x8040df <qtm_local_ms_timecount+0x1>
     998:	82 0f       	add	r24, r18
     99a:	93 1f       	adc	r25, r19
     99c:	80 93 de 40 	sts	0x40DE, r24	; 0x8040de <qtm_local_ms_timecount>
     9a0:	90 93 df 40 	sts	0x40DF, r25	; 0x8040df <qtm_local_ms_timecount+0x1>
     9a4:	08 95       	ret

000009a6 <qtm_init_sensor_key>:
     9a6:	00 97       	sbiw	r24, 0x00	; 0
     9a8:	d9 f0       	breq	.+54     	; 0x9e0 <qtm_init_sensor_key+0x3a>
     9aa:	41 15       	cp	r20, r1
     9ac:	51 05       	cpc	r21, r1
     9ae:	c1 f0       	breq	.+48     	; 0x9e0 <qtm_init_sensor_key+0x3a>
     9b0:	26 e0       	ldi	r18, 0x06	; 6
     9b2:	62 9f       	mul	r22, r18
     9b4:	b0 01       	movw	r22, r0
     9b6:	11 24       	eor	r1, r1
     9b8:	dc 01       	movw	r26, r24
     9ba:	14 96       	adiw	r26, 0x04	; 4
     9bc:	ed 91       	ld	r30, X+
     9be:	fc 91       	ld	r31, X
     9c0:	15 97       	sbiw	r26, 0x05	; 5
     9c2:	e6 0f       	add	r30, r22
     9c4:	f7 1f       	adc	r31, r23
     9c6:	21 e0       	ldi	r18, 0x01	; 1
     9c8:	20 83       	st	Z, r18
     9ca:	14 96       	adiw	r26, 0x04	; 4
     9cc:	8d 91       	ld	r24, X+
     9ce:	9c 91       	ld	r25, X
     9d0:	15 97       	sbiw	r26, 0x05	; 5
     9d2:	fc 01       	movw	r30, r24
     9d4:	e6 0f       	add	r30, r22
     9d6:	f7 1f       	adc	r31, r23
     9d8:	42 83       	std	Z+2, r20	; 0x02
     9da:	53 83       	std	Z+3, r21	; 0x03
     9dc:	80 e0       	ldi	r24, 0x00	; 0
     9de:	08 95       	ret
     9e0:	8b e0       	ldi	r24, 0x0B	; 11
     9e2:	08 95       	ret

000009e4 <qtm_key_sensors_process>:
     9e4:	2f 92       	push	r2
     9e6:	3f 92       	push	r3
     9e8:	4f 92       	push	r4
     9ea:	5f 92       	push	r5
     9ec:	6f 92       	push	r6
     9ee:	7f 92       	push	r7
     9f0:	8f 92       	push	r8
     9f2:	9f 92       	push	r9
     9f4:	af 92       	push	r10
     9f6:	bf 92       	push	r11
     9f8:	cf 92       	push	r12
     9fa:	df 92       	push	r13
     9fc:	ef 92       	push	r14
     9fe:	ff 92       	push	r15
     a00:	0f 93       	push	r16
     a02:	1f 93       	push	r17
     a04:	cf 93       	push	r28
     a06:	df 93       	push	r29
     a08:	00 97       	sbiw	r24, 0x00	; 0
     a0a:	09 f4       	brne	.+2      	; 0xa0e <qtm_key_sensors_process+0x2a>
     a0c:	7e c3       	rjmp	.+1788   	; 0x110a <qtm_key_sensors_process+0x726>
     a0e:	ec 01       	movw	r28, r24
     a10:	a1 2c       	mov	r10, r1
     a12:	b1 2c       	mov	r11, r1
     a14:	81 2c       	mov	r8, r1
     a16:	91 2c       	mov	r9, r1
     a18:	21 2c       	mov	r2, r1
     a1a:	d1 2c       	mov	r13, r1
     a1c:	55 24       	eor	r5, r5
     a1e:	53 94       	inc	r5
     a20:	33 e0       	ldi	r19, 0x03	; 3
     a22:	c3 2e       	mov	r12, r19
     a24:	45 e8       	ldi	r20, 0x85	; 133
     a26:	64 2e       	mov	r6, r20
     a28:	56 e8       	ldi	r21, 0x86	; 134
     a2a:	75 2e       	mov	r7, r21
     a2c:	62 e0       	ldi	r22, 0x02	; 2
     a2e:	36 2e       	mov	r3, r22
     a30:	78 e0       	ldi	r23, 0x08	; 8
     a32:	47 2e       	mov	r4, r23
     a34:	ea 81       	ldd	r30, Y+2	; 0x02
     a36:	fb 81       	ldd	r31, Y+3	; 0x03
     a38:	80 81       	ld	r24, Z
     a3a:	91 81       	ldd	r25, Z+1	; 0x01
     a3c:	88 16       	cp	r8, r24
     a3e:	99 06       	cpc	r9, r25
     a40:	08 f0       	brcs	.+2      	; 0xa44 <qtm_key_sensors_process+0x60>
     a42:	a6 c1       	rjmp	.+844    	; 0xd90 <qtm_key_sensors_process+0x3ac>
     a44:	75 01       	movw	r14, r10
     a46:	ee 0c       	add	r14, r14
     a48:	ff 1c       	adc	r15, r15
     a4a:	ec 81       	ldd	r30, Y+4	; 0x04
     a4c:	fd 81       	ldd	r31, Y+5	; 0x05
     a4e:	ee 0d       	add	r30, r14
     a50:	ff 1d       	adc	r31, r15
     a52:	a2 81       	ldd	r26, Z+2	; 0x02
     a54:	b3 81       	ldd	r27, Z+3	; 0x03
     a56:	9c 91       	ld	r25, X
     a58:	9e 71       	andi	r25, 0x1E	; 30
     a5a:	09 f0       	breq	.+2      	; 0xa5e <qtm_key_sensors_process+0x7a>
     a5c:	50 82       	st	Z, r5
     a5e:	0c 81       	ldd	r16, Y+4	; 0x04
     a60:	1d 81       	ldd	r17, Y+5	; 0x05
     a62:	0e 0d       	add	r16, r14
     a64:	1f 1d       	adc	r17, r15
     a66:	d8 01       	movw	r26, r16
     a68:	8c 91       	ld	r24, X
     a6a:	84 30       	cpi	r24, 0x04	; 4
     a6c:	09 f4       	brne	.+2      	; 0xa70 <qtm_key_sensors_process+0x8c>
     a6e:	9e c0       	rjmp	.+316    	; 0xbac <qtm_key_sensors_process+0x1c8>
     a70:	38 f4       	brcc	.+14     	; 0xa80 <qtm_key_sensors_process+0x9c>
     a72:	82 30       	cpi	r24, 0x02	; 2
     a74:	d1 f0       	breq	.+52     	; 0xaaa <qtm_key_sensors_process+0xc6>
     a76:	08 f0       	brcs	.+2      	; 0xa7a <qtm_key_sensors_process+0x96>
     a78:	45 c0       	rjmp	.+138    	; 0xb04 <qtm_key_sensors_process+0x120>
     a7a:	81 30       	cpi	r24, 0x01	; 1
     a7c:	59 f0       	breq	.+22     	; 0xa94 <qtm_key_sensors_process+0xb0>
     a7e:	81 c1       	rjmp	.+770    	; 0xd82 <qtm_key_sensors_process+0x39e>
     a80:	85 38       	cpi	r24, 0x85	; 133
     a82:	09 f4       	brne	.+2      	; 0xa86 <qtm_key_sensors_process+0xa2>
     a84:	bf c0       	rjmp	.+382    	; 0xc04 <qtm_key_sensors_process+0x220>
     a86:	86 38       	cpi	r24, 0x86	; 134
     a88:	09 f4       	brne	.+2      	; 0xa8c <qtm_key_sensors_process+0xa8>
     a8a:	f5 c0       	rjmp	.+490    	; 0xc76 <qtm_key_sensors_process+0x292>
     a8c:	87 30       	cpi	r24, 0x07	; 7
     a8e:	09 f0       	breq	.+2      	; 0xa92 <qtm_key_sensors_process+0xae>
     a90:	78 c1       	rjmp	.+752    	; 0xd82 <qtm_key_sensors_process+0x39e>
     a92:	36 c1       	rjmp	.+620    	; 0xd00 <qtm_key_sensors_process+0x31c>
     a94:	91 11       	cpse	r25, r1
     a96:	67 c1       	rjmp	.+718    	; 0xd66 <qtm_key_sensors_process+0x382>
     a98:	f8 01       	movw	r30, r16
     a9a:	30 82       	st	Z, r3
     a9c:	8c 81       	ldd	r24, Y+4	; 0x04
     a9e:	9d 81       	ldd	r25, Y+5	; 0x05
     aa0:	fc 01       	movw	r30, r24
     aa2:	ee 0d       	add	r30, r14
     aa4:	ff 1d       	adc	r31, r15
     aa6:	41 82       	std	Z+1, r4	; 0x01
     aa8:	5e c1       	rjmp	.+700    	; 0xd66 <qtm_key_sensors_process+0x382>
     aaa:	d8 01       	movw	r26, r16
     aac:	11 96       	adiw	r26, 0x01	; 1
     aae:	2c 91       	ld	r18, X
     ab0:	11 97       	sbiw	r26, 0x01	; 1
     ab2:	22 23       	and	r18, r18
     ab4:	29 f1       	breq	.+74     	; 0xb00 <qtm_key_sensors_process+0x11c>
     ab6:	12 96       	adiw	r26, 0x02	; 2
     ab8:	ed 91       	ld	r30, X+
     aba:	fc 91       	ld	r31, X
     abc:	13 97       	sbiw	r26, 0x03	; 3
     abe:	25 30       	cpi	r18, 0x05	; 5
     ac0:	18 f0       	brcs	.+6      	; 0xac8 <qtm_key_sensors_process+0xe4>
     ac2:	81 81       	ldd	r24, Z+1	; 0x01
     ac4:	92 81       	ldd	r25, Z+2	; 0x02
     ac6:	0e c0       	rjmp	.+28     	; 0xae4 <qtm_key_sensors_process+0x100>
     ac8:	d8 01       	movw	r26, r16
     aca:	14 96       	adiw	r26, 0x04	; 4
     acc:	8d 91       	ld	r24, X+
     ace:	9c 91       	ld	r25, X
     ad0:	15 97       	sbiw	r26, 0x05	; 5
     ad2:	41 81       	ldd	r20, Z+1	; 0x01
     ad4:	52 81       	ldd	r21, Z+2	; 0x02
     ad6:	84 17       	cp	r24, r20
     ad8:	95 07       	cpc	r25, r21
     ada:	69 f0       	breq	.+26     	; 0xaf6 <qtm_key_sensors_process+0x112>
     adc:	48 17       	cp	r20, r24
     ade:	59 07       	cpc	r21, r25
     ae0:	30 f4       	brcc	.+12     	; 0xaee <qtm_key_sensors_process+0x10a>
     ae2:	01 97       	sbiw	r24, 0x01	; 1
     ae4:	14 96       	adiw	r26, 0x04	; 4
     ae6:	8d 93       	st	X+, r24
     ae8:	9c 93       	st	X, r25
     aea:	15 97       	sbiw	r26, 0x05	; 5
     aec:	04 c0       	rjmp	.+8      	; 0xaf6 <qtm_key_sensors_process+0x112>
     aee:	01 96       	adiw	r24, 0x01	; 1
     af0:	f8 01       	movw	r30, r16
     af2:	84 83       	std	Z+4, r24	; 0x04
     af4:	95 83       	std	Z+5, r25	; 0x05
     af6:	21 50       	subi	r18, 0x01	; 1
     af8:	d8 01       	movw	r26, r16
     afa:	11 96       	adiw	r26, 0x01	; 1
     afc:	2c 93       	st	X, r18
     afe:	33 c1       	rjmp	.+614    	; 0xd66 <qtm_key_sensors_process+0x382>
     b00:	f8 01       	movw	r30, r16
     b02:	2d c1       	rjmp	.+602    	; 0xd5e <qtm_key_sensors_process+0x37a>
     b04:	d8 01       	movw	r26, r16
     b06:	14 96       	adiw	r26, 0x04	; 4
     b08:	2d 91       	ld	r18, X+
     b0a:	3c 91       	ld	r19, X
     b0c:	15 97       	sbiw	r26, 0x05	; 5
     b0e:	12 96       	adiw	r26, 0x02	; 2
     b10:	ed 91       	ld	r30, X+
     b12:	fc 91       	ld	r31, X
     b14:	13 97       	sbiw	r26, 0x03	; 3
     b16:	41 81       	ldd	r20, Z+1	; 0x01
     b18:	52 81       	ldd	r21, Z+2	; 0x02
     b1a:	24 17       	cp	r18, r20
     b1c:	35 07       	cpc	r19, r21
     b1e:	09 f4       	brne	.+2      	; 0xb22 <qtm_key_sensors_process+0x13e>
     b20:	30 c1       	rjmp	.+608    	; 0xd82 <qtm_key_sensors_process+0x39e>
     b22:	8e 81       	ldd	r24, Y+6	; 0x06
     b24:	9f 81       	ldd	r25, Y+7	; 0x07
     b26:	42 17       	cp	r20, r18
     b28:	53 07       	cpc	r21, r19
     b2a:	f8 f4       	brcc	.+62     	; 0xb6a <qtm_key_sensors_process+0x186>
     b2c:	ea 81       	ldd	r30, Y+2	; 0x02
     b2e:	fb 81       	ldd	r31, Y+3	; 0x03
     b30:	24 1b       	sub	r18, r20
     b32:	35 0b       	sbc	r19, r21
     b34:	dc 01       	movw	r26, r24
     b36:	aa 0d       	add	r26, r10
     b38:	bb 1d       	adc	r27, r11
     b3a:	8c 91       	ld	r24, X
     b3c:	90 e0       	ldi	r25, 0x00	; 0
     b3e:	05 80       	ldd	r0, Z+5	; 0x05
     b40:	02 c0       	rjmp	.+4      	; 0xb46 <qtm_key_sensors_process+0x162>
     b42:	95 95       	asr	r25
     b44:	87 95       	ror	r24
     b46:	0a 94       	dec	r0
     b48:	e2 f7       	brpl	.-8      	; 0xb42 <qtm_key_sensors_process+0x15e>
     b4a:	99 27       	eor	r25, r25
     b4c:	28 17       	cp	r18, r24
     b4e:	39 07       	cpc	r19, r25
     b50:	08 f4       	brcc	.+2      	; 0xb54 <qtm_key_sensors_process+0x170>
     b52:	17 c1       	rjmp	.+558    	; 0xd82 <qtm_key_sensors_process+0x39e>
     b54:	84 81       	ldd	r24, Z+4	; 0x04
     b56:	88 23       	and	r24, r24
     b58:	09 f4       	brne	.+2      	; 0xb5c <qtm_key_sensors_process+0x178>
     b5a:	13 c1       	rjmp	.+550    	; 0xd82 <qtm_key_sensors_process+0x39e>
     b5c:	87 e0       	ldi	r24, 0x07	; 7
     b5e:	f8 01       	movw	r30, r16
     b60:	80 83       	st	Z, r24
     b62:	ea 81       	ldd	r30, Y+2	; 0x02
     b64:	fb 81       	ldd	r31, Y+3	; 0x03
     b66:	24 81       	ldd	r18, Z+4	; 0x04
     b68:	1a c0       	rjmp	.+52     	; 0xb9e <qtm_key_sensors_process+0x1ba>
     b6a:	fc 01       	movw	r30, r24
     b6c:	ea 0d       	add	r30, r10
     b6e:	fb 1d       	adc	r31, r11
     b70:	42 1b       	sub	r20, r18
     b72:	53 0b       	sbc	r21, r19
     b74:	80 81       	ld	r24, Z
     b76:	90 e0       	ldi	r25, 0x00	; 0
     b78:	48 17       	cp	r20, r24
     b7a:	59 07       	cpc	r21, r25
     b7c:	08 f4       	brcc	.+2      	; 0xb80 <qtm_key_sensors_process+0x19c>
     b7e:	01 c1       	rjmp	.+514    	; 0xd82 <qtm_key_sensors_process+0x39e>
     b80:	82 81       	ldd	r24, Z+2	; 0x02
     b82:	88 23       	and	r24, r24
     b84:	31 f0       	breq	.+12     	; 0xb92 <qtm_key_sensors_process+0x1ae>
     b86:	b4 01       	movw	r22, r8
     b88:	ce 01       	movw	r24, r28
     b8a:	0e 94 5f 04 	call	0x8be	; 0x8be <check_for_aks_block>
     b8e:	81 11       	cpse	r24, r1
     b90:	f8 c0       	rjmp	.+496    	; 0xd82 <qtm_key_sensors_process+0x39e>
     b92:	e4 e0       	ldi	r30, 0x04	; 4
     b94:	d8 01       	movw	r26, r16
     b96:	ec 93       	st	X, r30
     b98:	ea 81       	ldd	r30, Y+2	; 0x02
     b9a:	fb 81       	ldd	r31, Y+3	; 0x03
     b9c:	22 81       	ldd	r18, Z+2	; 0x02
     b9e:	8c 81       	ldd	r24, Y+4	; 0x04
     ba0:	9d 81       	ldd	r25, Y+5	; 0x05
     ba2:	fc 01       	movw	r30, r24
     ba4:	ee 0d       	add	r30, r14
     ba6:	ff 1d       	adc	r31, r15
     ba8:	21 83       	std	Z+1, r18	; 0x01
     baa:	dd c0       	rjmp	.+442    	; 0xd66 <qtm_key_sensors_process+0x382>
     bac:	d8 01       	movw	r26, r16
     bae:	14 96       	adiw	r26, 0x04	; 4
     bb0:	2d 91       	ld	r18, X+
     bb2:	3c 91       	ld	r19, X
     bb4:	15 97       	sbiw	r26, 0x05	; 5
     bb6:	12 96       	adiw	r26, 0x02	; 2
     bb8:	ed 91       	ld	r30, X+
     bba:	fc 91       	ld	r31, X
     bbc:	13 97       	sbiw	r26, 0x03	; 3
     bbe:	81 81       	ldd	r24, Z+1	; 0x01
     bc0:	92 81       	ldd	r25, Z+2	; 0x02
     bc2:	82 17       	cp	r24, r18
     bc4:	93 07       	cpc	r25, r19
     bc6:	08 f4       	brcc	.+2      	; 0xbca <qtm_key_sensors_process+0x1e6>
     bc8:	bb c0       	rjmp	.+374    	; 0xd40 <qtm_key_sensors_process+0x35c>
     bca:	ee 81       	ldd	r30, Y+6	; 0x06
     bcc:	ff 81       	ldd	r31, Y+7	; 0x07
     bce:	ea 0d       	add	r30, r10
     bd0:	fb 1d       	adc	r31, r11
     bd2:	82 1b       	sub	r24, r18
     bd4:	93 0b       	sbc	r25, r19
     bd6:	20 81       	ld	r18, Z
     bd8:	30 e0       	ldi	r19, 0x00	; 0
     bda:	28 17       	cp	r18, r24
     bdc:	39 07       	cpc	r19, r25
     bde:	08 f0       	brcs	.+2      	; 0xbe2 <qtm_key_sensors_process+0x1fe>
     be0:	c5 c0       	rjmp	.+394    	; 0xd6c <qtm_key_sensors_process+0x388>
     be2:	82 81       	ldd	r24, Z+2	; 0x02
     be4:	88 23       	and	r24, r24
     be6:	31 f0       	breq	.+12     	; 0xbf4 <qtm_key_sensors_process+0x210>
     be8:	b4 01       	movw	r22, r8
     bea:	ce 01       	movw	r24, r28
     bec:	0e 94 5f 04 	call	0x8be	; 0x8be <check_for_aks_block>
     bf0:	81 11       	cpse	r24, r1
     bf2:	c7 c0       	rjmp	.+398    	; 0xd82 <qtm_key_sensors_process+0x39e>
     bf4:	f8 01       	movw	r30, r16
     bf6:	81 81       	ldd	r24, Z+1	; 0x01
     bf8:	88 23       	and	r24, r24
     bfa:	09 f4       	brne	.+2      	; 0xbfe <qtm_key_sensors_process+0x21a>
     bfc:	6a c0       	rjmp	.+212    	; 0xcd2 <qtm_key_sensors_process+0x2ee>
     bfe:	81 50       	subi	r24, 0x01	; 1
     c00:	81 83       	std	Z+1, r24	; 0x01
     c02:	b1 c0       	rjmp	.+354    	; 0xd66 <qtm_key_sensors_process+0x382>
     c04:	e8 81       	ld	r30, Y
     c06:	f9 81       	ldd	r31, Y+1	; 0x01
     c08:	aa 81       	ldd	r26, Y+2	; 0x02
     c0a:	bb 81       	ldd	r27, Y+3	; 0x03
     c0c:	18 96       	adiw	r26, 0x08	; 8
     c0e:	8c 91       	ld	r24, X
     c10:	83 83       	std	Z+3, r24	; 0x03
     c12:	ec 81       	ldd	r30, Y+4	; 0x04
     c14:	fd 81       	ldd	r31, Y+5	; 0x05
     c16:	ee 0d       	add	r30, r14
     c18:	ff 1d       	adc	r31, r15
     c1a:	44 81       	ldd	r20, Z+4	; 0x04
     c1c:	55 81       	ldd	r21, Z+5	; 0x05
     c1e:	a2 81       	ldd	r26, Z+2	; 0x02
     c20:	b3 81       	ldd	r27, Z+3	; 0x03
     c22:	11 96       	adiw	r26, 0x01	; 1
     c24:	8d 91       	ld	r24, X+
     c26:	9c 91       	ld	r25, X
     c28:	12 97       	sbiw	r26, 0x02	; 2
     c2a:	84 17       	cp	r24, r20
     c2c:	95 07       	cpc	r25, r21
     c2e:	c0 f0       	brcs	.+48     	; 0xc60 <qtm_key_sensors_process+0x27c>
     c30:	ae 81       	ldd	r26, Y+6	; 0x06
     c32:	bf 81       	ldd	r27, Y+7	; 0x07
     c34:	aa 0d       	add	r26, r10
     c36:	bb 1d       	adc	r27, r11
     c38:	6c 91       	ld	r22, X
     c3a:	26 2f       	mov	r18, r22
     c3c:	30 e0       	ldi	r19, 0x00	; 0
     c3e:	11 96       	adiw	r26, 0x01	; 1
     c40:	7c 91       	ld	r23, X
     c42:	7f 5f       	subi	r23, 0xFF	; 255
     c44:	02 c0       	rjmp	.+4      	; 0xc4a <qtm_key_sensors_process+0x266>
     c46:	35 95       	asr	r19
     c48:	27 95       	ror	r18
     c4a:	7a 95       	dec	r23
     c4c:	e2 f7       	brpl	.-8      	; 0xc46 <qtm_key_sensors_process+0x262>
     c4e:	84 1b       	sub	r24, r20
     c50:	95 0b       	sbc	r25, r21
     c52:	62 1b       	sub	r22, r18
     c54:	26 2f       	mov	r18, r22
     c56:	30 e0       	ldi	r19, 0x00	; 0
     c58:	28 17       	cp	r18, r24
     c5a:	39 07       	cpc	r19, r25
     c5c:	08 f4       	brcc	.+2      	; 0xc60 <qtm_key_sensors_process+0x27c>
     c5e:	8f c0       	rjmp	.+286    	; 0xd7e <qtm_key_sensors_process+0x39a>
     c60:	70 82       	st	Z, r7
     c62:	ea 81       	ldd	r30, Y+2	; 0x02
     c64:	fb 81       	ldd	r31, Y+3	; 0x03
     c66:	22 81       	ldd	r18, Z+2	; 0x02
     c68:	8c 81       	ldd	r24, Y+4	; 0x04
     c6a:	9d 81       	ldd	r25, Y+5	; 0x05
     c6c:	fc 01       	movw	r30, r24
     c6e:	ee 0d       	add	r30, r14
     c70:	ff 1d       	adc	r31, r15
     c72:	21 83       	std	Z+1, r18	; 0x01
     c74:	42 c0       	rjmp	.+132    	; 0xcfa <qtm_key_sensors_process+0x316>
     c76:	d8 01       	movw	r26, r16
     c78:	14 96       	adiw	r26, 0x04	; 4
     c7a:	6d 91       	ld	r22, X+
     c7c:	7c 91       	ld	r23, X
     c7e:	15 97       	sbiw	r26, 0x05	; 5
     c80:	12 96       	adiw	r26, 0x02	; 2
     c82:	ed 91       	ld	r30, X+
     c84:	fc 91       	ld	r31, X
     c86:	13 97       	sbiw	r26, 0x03	; 3
     c88:	21 81       	ldd	r18, Z+1	; 0x01
     c8a:	32 81       	ldd	r19, Z+2	; 0x02
     c8c:	26 17       	cp	r18, r22
     c8e:	37 07       	cpc	r19, r23
     c90:	58 f4       	brcc	.+22     	; 0xca8 <qtm_key_sensors_process+0x2c4>
     c92:	11 96       	adiw	r26, 0x01	; 1
     c94:	8c 91       	ld	r24, X
     c96:	11 97       	sbiw	r26, 0x01	; 1
     c98:	81 11       	cpse	r24, r1
     c9a:	02 c0       	rjmp	.+4      	; 0xca0 <qtm_key_sensors_process+0x2bc>
     c9c:	cc 92       	st	X, r12
     c9e:	6f c0       	rjmp	.+222    	; 0xd7e <qtm_key_sensors_process+0x39a>
     ca0:	81 50       	subi	r24, 0x01	; 1
     ca2:	f8 01       	movw	r30, r16
     ca4:	81 83       	std	Z+1, r24	; 0x01
     ca6:	6b c0       	rjmp	.+214    	; 0xd7e <qtm_key_sensors_process+0x39a>
     ca8:	ee 81       	ldd	r30, Y+6	; 0x06
     caa:	ff 81       	ldd	r31, Y+7	; 0x07
     cac:	ea 0d       	add	r30, r10
     cae:	fb 1d       	adc	r31, r11
     cb0:	80 81       	ld	r24, Z
     cb2:	48 2f       	mov	r20, r24
     cb4:	50 e0       	ldi	r21, 0x00	; 0
     cb6:	91 81       	ldd	r25, Z+1	; 0x01
     cb8:	9f 5f       	subi	r25, 0xFF	; 255
     cba:	02 c0       	rjmp	.+4      	; 0xcc0 <qtm_key_sensors_process+0x2dc>
     cbc:	55 95       	asr	r21
     cbe:	47 95       	ror	r20
     cc0:	9a 95       	dec	r25
     cc2:	e2 f7       	brpl	.-8      	; 0xcbc <qtm_key_sensors_process+0x2d8>
     cc4:	26 1b       	sub	r18, r22
     cc6:	37 0b       	sbc	r19, r23
     cc8:	84 1b       	sub	r24, r20
     cca:	90 e0       	ldi	r25, 0x00	; 0
     ccc:	82 17       	cp	r24, r18
     cce:	93 07       	cpc	r25, r19
     cd0:	60 f4       	brcc	.+24     	; 0xcea <qtm_key_sensors_process+0x306>
     cd2:	d8 01       	movw	r26, r16
     cd4:	6c 92       	st	X, r6
     cd6:	ea 81       	ldd	r30, Y+2	; 0x02
     cd8:	fb 81       	ldd	r31, Y+3	; 0x03
     cda:	23 81       	ldd	r18, Z+3	; 0x03
     cdc:	8c 81       	ldd	r24, Y+4	; 0x04
     cde:	9d 81       	ldd	r25, Y+5	; 0x05
     ce0:	fc 01       	movw	r30, r24
     ce2:	ee 0d       	add	r30, r14
     ce4:	ff 1d       	adc	r31, r15
     ce6:	21 83       	std	Z+1, r18	; 0x01
     ce8:	4a c0       	rjmp	.+148    	; 0xd7e <qtm_key_sensors_process+0x39a>
     cea:	f8 01       	movw	r30, r16
     cec:	81 81       	ldd	r24, Z+1	; 0x01
     cee:	81 11       	cpse	r24, r1
     cf0:	02 c0       	rjmp	.+4      	; 0xcf6 <qtm_key_sensors_process+0x312>
     cf2:	c0 82       	st	Z, r12
     cf4:	44 c0       	rjmp	.+136    	; 0xd7e <qtm_key_sensors_process+0x39a>
     cf6:	81 50       	subi	r24, 0x01	; 1
     cf8:	81 83       	std	Z+1, r24	; 0x01
     cfa:	22 24       	eor	r2, r2
     cfc:	23 94       	inc	r2
     cfe:	33 c0       	rjmp	.+102    	; 0xd66 <qtm_key_sensors_process+0x382>
     d00:	f8 01       	movw	r30, r16
     d02:	24 81       	ldd	r18, Z+4	; 0x04
     d04:	35 81       	ldd	r19, Z+5	; 0x05
     d06:	02 80       	ldd	r0, Z+2	; 0x02
     d08:	f3 81       	ldd	r31, Z+3	; 0x03
     d0a:	e0 2d       	mov	r30, r0
     d0c:	81 81       	ldd	r24, Z+1	; 0x01
     d0e:	92 81       	ldd	r25, Z+2	; 0x02
     d10:	82 17       	cp	r24, r18
     d12:	93 07       	cpc	r25, r19
     d14:	58 f5       	brcc	.+86     	; 0xd6c <qtm_key_sensors_process+0x388>
     d16:	28 1b       	sub	r18, r24
     d18:	39 0b       	sbc	r19, r25
     d1a:	ee 81       	ldd	r30, Y+6	; 0x06
     d1c:	ff 81       	ldd	r31, Y+7	; 0x07
     d1e:	ea 0d       	add	r30, r10
     d20:	fb 1d       	adc	r31, r11
     d22:	80 81       	ld	r24, Z
     d24:	90 e0       	ldi	r25, 0x00	; 0
     d26:	ea 81       	ldd	r30, Y+2	; 0x02
     d28:	fb 81       	ldd	r31, Y+3	; 0x03
     d2a:	05 80       	ldd	r0, Z+5	; 0x05
     d2c:	02 c0       	rjmp	.+4      	; 0xd32 <qtm_key_sensors_process+0x34e>
     d2e:	95 95       	asr	r25
     d30:	87 95       	ror	r24
     d32:	0a 94       	dec	r0
     d34:	e2 f7       	brpl	.-8      	; 0xd2e <qtm_key_sensors_process+0x34a>
     d36:	99 27       	eor	r25, r25
     d38:	28 17       	cp	r18, r24
     d3a:	39 07       	cpc	r19, r25
     d3c:	18 f4       	brcc	.+6      	; 0xd44 <qtm_key_sensors_process+0x360>
     d3e:	d8 01       	movw	r26, r16
     d40:	cc 92       	st	X, r12
     d42:	16 c0       	rjmp	.+44     	; 0xd70 <qtm_key_sensors_process+0x38c>
     d44:	f8 01       	movw	r30, r16
     d46:	81 81       	ldd	r24, Z+1	; 0x01
     d48:	81 11       	cpse	r24, r1
     d4a:	0b c0       	rjmp	.+22     	; 0xd62 <qtm_key_sensors_process+0x37e>
     d4c:	50 82       	st	Z, r5
     d4e:	8c 81       	ldd	r24, Y+4	; 0x04
     d50:	9d 81       	ldd	r25, Y+5	; 0x05
     d52:	fc 01       	movw	r30, r24
     d54:	ee 0d       	add	r30, r14
     d56:	ff 1d       	adc	r31, r15
     d58:	02 80       	ldd	r0, Z+2	; 0x02
     d5a:	f3 81       	ldd	r31, Z+3	; 0x03
     d5c:	e0 2d       	mov	r30, r0
     d5e:	c0 82       	st	Z, r12
     d60:	10 c0       	rjmp	.+32     	; 0xd82 <qtm_key_sensors_process+0x39e>
     d62:	81 50       	subi	r24, 0x01	; 1
     d64:	81 83       	std	Z+1, r24	; 0x01
     d66:	dd 24       	eor	r13, r13
     d68:	d3 94       	inc	r13
     d6a:	0b c0       	rjmp	.+22     	; 0xd82 <qtm_key_sensors_process+0x39e>
     d6c:	f8 01       	movw	r30, r16
     d6e:	c0 82       	st	Z, r12
     d70:	8c 81       	ldd	r24, Y+4	; 0x04
     d72:	9d 81       	ldd	r25, Y+5	; 0x05
     d74:	fc 01       	movw	r30, r24
     d76:	ee 0d       	add	r30, r14
     d78:	ff 1d       	adc	r31, r15
     d7a:	11 82       	std	Z+1, r1	; 0x01
     d7c:	02 c0       	rjmp	.+4      	; 0xd82 <qtm_key_sensors_process+0x39e>
     d7e:	22 24       	eor	r2, r2
     d80:	23 94       	inc	r2
     d82:	ff ef       	ldi	r31, 0xFF	; 255
     d84:	8f 1a       	sub	r8, r31
     d86:	9f 0a       	sbc	r9, r31
     d88:	83 e0       	ldi	r24, 0x03	; 3
     d8a:	a8 0e       	add	r10, r24
     d8c:	b1 1c       	adc	r11, r1
     d8e:	52 ce       	rjmp	.-860    	; 0xa34 <qtm_key_sensors_process+0x50>
     d90:	e8 81       	ld	r30, Y
     d92:	f9 81       	ldd	r31, Y+1	; 0x01
     d94:	80 81       	ld	r24, Z
     d96:	87 ff       	sbrs	r24, 7
     d98:	23 c0       	rjmp	.+70     	; 0xde0 <qtm_key_sensors_process+0x3fc>
     d9a:	40 e0       	ldi	r20, 0x00	; 0
     d9c:	50 e0       	ldi	r21, 0x00	; 0
     d9e:	20 e0       	ldi	r18, 0x00	; 0
     da0:	30 e0       	ldi	r19, 0x00	; 0
     da2:	ea 81       	ldd	r30, Y+2	; 0x02
     da4:	fb 81       	ldd	r31, Y+3	; 0x03
     da6:	80 81       	ld	r24, Z
     da8:	91 81       	ldd	r25, Z+1	; 0x01
     daa:	28 17       	cp	r18, r24
     dac:	39 07       	cpc	r19, r25
     dae:	98 f4       	brcc	.+38     	; 0xdd6 <qtm_key_sensors_process+0x3f2>
     db0:	ec 81       	ldd	r30, Y+4	; 0x04
     db2:	fd 81       	ldd	r31, Y+5	; 0x05
     db4:	e4 0f       	add	r30, r20
     db6:	f5 1f       	adc	r31, r21
     db8:	a2 81       	ldd	r26, Z+2	; 0x02
     dba:	b3 81       	ldd	r27, Z+3	; 0x03
     dbc:	8c 91       	ld	r24, X
     dbe:	80 fd       	sbrc	r24, 0
     dc0:	05 c0       	rjmp	.+10     	; 0xdcc <qtm_key_sensors_process+0x3e8>
     dc2:	90 81       	ld	r25, Z
     dc4:	97 7f       	andi	r25, 0xF7	; 247
     dc6:	11 f0       	breq	.+4      	; 0xdcc <qtm_key_sensors_process+0x3e8>
     dc8:	81 60       	ori	r24, 0x01	; 1
     dca:	8c 93       	st	X, r24
     dcc:	2f 5f       	subi	r18, 0xFF	; 255
     dce:	3f 4f       	sbci	r19, 0xFF	; 255
     dd0:	4a 5f       	subi	r20, 0xFA	; 250
     dd2:	5f 4f       	sbci	r21, 0xFF	; 255
     dd4:	e6 cf       	rjmp	.-52     	; 0xda2 <qtm_key_sensors_process+0x3be>
     dd6:	e8 81       	ld	r30, Y
     dd8:	f9 81       	ldd	r31, Y+1	; 0x01
     dda:	80 81       	ld	r24, Z
     ddc:	8f 77       	andi	r24, 0x7F	; 127
     dde:	80 83       	st	Z, r24
     de0:	d1 10       	cpse	r13, r1
     de2:	07 c0       	rjmp	.+14     	; 0xdf2 <qtm_key_sensors_process+0x40e>
     de4:	e8 81       	ld	r30, Y
     de6:	f9 81       	ldd	r31, Y+1	; 0x01
     de8:	21 10       	cpse	r2, r1
     dea:	6f c0       	rjmp	.+222    	; 0xeca <qtm_key_sensors_process+0x4e6>
     dec:	80 81       	ld	r24, Z
     dee:	8e 7f       	andi	r24, 0xFE	; 254
     df0:	6e c0       	rjmp	.+220    	; 0xece <qtm_key_sensors_process+0x4ea>
     df2:	ea 81       	ldd	r30, Y+2	; 0x02
     df4:	fb 81       	ldd	r31, Y+3	; 0x03
     df6:	81 85       	ldd	r24, Z+9	; 0x09
     df8:	88 23       	and	r24, r24
     dfa:	a1 f3       	breq	.-24     	; 0xde4 <qtm_key_sensors_process+0x400>
     dfc:	e8 81       	ld	r30, Y
     dfe:	f9 81       	ldd	r31, Y+1	; 0x01
     e00:	80 81       	ld	r24, Z
     e02:	80 68       	ori	r24, 0x80	; 128
     e04:	80 83       	st	Z, r24
     e06:	ea 81       	ldd	r30, Y+2	; 0x02
     e08:	fb 81       	ldd	r31, Y+3	; 0x03
     e0a:	81 85       	ldd	r24, Z+9	; 0x09
     e0c:	81 30       	cpi	r24, 0x01	; 1
     e0e:	51 f7       	brne	.-44     	; 0xde4 <qtm_key_sensors_process+0x400>
     e10:	40 e0       	ldi	r20, 0x00	; 0
     e12:	50 e0       	ldi	r21, 0x00	; 0
     e14:	20 e0       	ldi	r18, 0x00	; 0
     e16:	30 e0       	ldi	r19, 0x00	; 0
     e18:	96 e0       	ldi	r25, 0x06	; 6
     e1a:	d9 2e       	mov	r13, r25
     e1c:	ea 81       	ldd	r30, Y+2	; 0x02
     e1e:	fb 81       	ldd	r31, Y+3	; 0x03
     e20:	60 81       	ld	r22, Z
     e22:	71 81       	ldd	r23, Z+1	; 0x01
     e24:	26 17       	cp	r18, r22
     e26:	37 07       	cpc	r19, r23
     e28:	e8 f6       	brcc	.-70     	; 0xde4 <qtm_key_sensors_process+0x400>
     e2a:	0c 81       	ldd	r16, Y+4	; 0x04
     e2c:	1d 81       	ldd	r17, Y+5	; 0x05
     e2e:	fa 01       	movw	r30, r20
     e30:	ee 0f       	add	r30, r30
     e32:	ff 1f       	adc	r31, r31
     e34:	e0 0f       	add	r30, r16
     e36:	f1 1f       	adc	r31, r17
     e38:	80 81       	ld	r24, Z
     e3a:	98 2f       	mov	r25, r24
     e3c:	97 7f       	andi	r25, 0xF7	; 247
     e3e:	a1 f1       	breq	.+104    	; 0xea8 <qtm_key_sensors_process+0x4c4>
     e40:	85 38       	cpi	r24, 0x85	; 133
     e42:	11 f0       	breq	.+4      	; 0xe48 <qtm_key_sensors_process+0x464>
     e44:	83 30       	cpi	r24, 0x03	; 3
     e46:	b1 f5       	brne	.+108    	; 0xeb4 <qtm_key_sensors_process+0x4d0>
     e48:	ee 80       	ldd	r14, Y+6	; 0x06
     e4a:	ff 80       	ldd	r15, Y+7	; 0x07
     e4c:	d7 01       	movw	r26, r14
     e4e:	a4 0f       	add	r26, r20
     e50:	b5 1f       	adc	r27, r21
     e52:	12 96       	adiw	r26, 0x02	; 2
     e54:	bc 90       	ld	r11, X
     e56:	bb 20       	and	r11, r11
     e58:	39 f1       	breq	.+78     	; 0xea8 <qtm_key_sensors_process+0x4c4>
     e5a:	80 e0       	ldi	r24, 0x00	; 0
     e5c:	90 e0       	ldi	r25, 0x00	; 0
     e5e:	c1 2c       	mov	r12, r1
     e60:	86 17       	cp	r24, r22
     e62:	97 07       	cpc	r25, r23
     e64:	f8 f4       	brcc	.+62     	; 0xea4 <qtm_key_sensors_process+0x4c0>
     e66:	28 17       	cp	r18, r24
     e68:	39 07       	cpc	r19, r25
     e6a:	d1 f0       	breq	.+52     	; 0xea0 <qtm_key_sensors_process+0x4bc>
     e6c:	d8 9e       	mul	r13, r24
     e6e:	d0 01       	movw	r26, r0
     e70:	d9 9e       	mul	r13, r25
     e72:	b0 0d       	add	r27, r0
     e74:	11 24       	eor	r1, r1
     e76:	a0 0f       	add	r26, r16
     e78:	b1 1f       	adc	r27, r17
     e7a:	ac 91       	ld	r26, X
     e7c:	a4 30       	cpi	r26, 0x04	; 4
     e7e:	11 f0       	breq	.+4      	; 0xe84 <qtm_key_sensors_process+0x4a0>
     e80:	a6 38       	cpi	r26, 0x86	; 134
     e82:	71 f4       	brne	.+28     	; 0xea0 <qtm_key_sensors_process+0x4bc>
     e84:	dc 01       	movw	r26, r24
     e86:	aa 0f       	add	r26, r26
     e88:	bb 1f       	adc	r27, r27
     e8a:	a8 0f       	add	r26, r24
     e8c:	b9 1f       	adc	r27, r25
     e8e:	ae 0d       	add	r26, r14
     e90:	bf 1d       	adc	r27, r15
     e92:	12 96       	adiw	r26, 0x02	; 2
     e94:	ac 91       	ld	r26, X
     e96:	ba 12       	cpse	r11, r26
     e98:	03 c0       	rjmp	.+6      	; 0xea0 <qtm_key_sensors_process+0x4bc>
     e9a:	cb 01       	movw	r24, r22
     e9c:	cc 24       	eor	r12, r12
     e9e:	c3 94       	inc	r12
     ea0:	01 96       	adiw	r24, 0x01	; 1
     ea2:	de cf       	rjmp	.-68     	; 0xe60 <qtm_key_sensors_process+0x47c>
     ea4:	c1 10       	cpse	r12, r1
     ea6:	06 c0       	rjmp	.+12     	; 0xeb4 <qtm_key_sensors_process+0x4d0>
     ea8:	02 80       	ldd	r0, Z+2	; 0x02
     eaa:	f3 81       	ldd	r31, Z+3	; 0x03
     eac:	e0 2d       	mov	r30, r0
     eae:	80 81       	ld	r24, Z
     eb0:	8e 7f       	andi	r24, 0xFE	; 254
     eb2:	05 c0       	rjmp	.+10     	; 0xebe <qtm_key_sensors_process+0x4da>
     eb4:	02 80       	ldd	r0, Z+2	; 0x02
     eb6:	f3 81       	ldd	r31, Z+3	; 0x03
     eb8:	e0 2d       	mov	r30, r0
     eba:	80 81       	ld	r24, Z
     ebc:	81 60       	ori	r24, 0x01	; 1
     ebe:	80 83       	st	Z, r24
     ec0:	2f 5f       	subi	r18, 0xFF	; 255
     ec2:	3f 4f       	sbci	r19, 0xFF	; 255
     ec4:	4d 5f       	subi	r20, 0xFD	; 253
     ec6:	5f 4f       	sbci	r21, 0xFF	; 255
     ec8:	a9 cf       	rjmp	.-174    	; 0xe1c <qtm_key_sensors_process+0x438>
     eca:	80 81       	ld	r24, Z
     ecc:	81 60       	ori	r24, 0x01	; 1
     ece:	80 83       	st	Z, r24
     ed0:	80 91 de 40 	lds	r24, 0x40DE	; 0x8040de <qtm_local_ms_timecount>
     ed4:	90 91 df 40 	lds	r25, 0x40DF	; 0x8040df <qtm_local_ms_timecount+0x1>
     ed8:	e8 81       	ld	r30, Y
     eda:	f9 81       	ldd	r31, Y+1	; 0x01
     edc:	21 81       	ldd	r18, Z+1	; 0x01
     ede:	32 81       	ldd	r19, Z+2	; 0x02
     ee0:	a9 01       	movw	r20, r18
     ee2:	48 53       	subi	r20, 0x38	; 56
     ee4:	5f 4f       	sbci	r21, 0xFF	; 255
     ee6:	48 17       	cp	r20, r24
     ee8:	59 07       	cpc	r21, r25
     eea:	38 f4       	brcc	.+14     	; 0xefa <qtm_key_sensors_process+0x516>
     eec:	82 1b       	sub	r24, r18
     eee:	93 0b       	sbc	r25, r19
     ef0:	aa 24       	eor	r10, r10
     ef2:	a3 94       	inc	r10
     ef4:	a3 e0       	ldi	r26, 0x03	; 3
     ef6:	ba 2e       	mov	r11, r26
     ef8:	44 c0       	rjmp	.+136    	; 0xf82 <qtm_key_sensors_process+0x59e>
     efa:	82 17       	cp	r24, r18
     efc:	93 07       	cpc	r25, r19
     efe:	10 f0       	brcs	.+4      	; 0xf04 <qtm_key_sensors_process+0x520>
     f00:	80 e0       	ldi	r24, 0x00	; 0
     f02:	04 c1       	rjmp	.+520    	; 0x110c <qtm_key_sensors_process+0x728>
     f04:	82 1b       	sub	r24, r18
     f06:	93 0b       	sbc	r25, r19
     f08:	01 97       	sbiw	r24, 0x01	; 1
     f0a:	89 3c       	cpi	r24, 0xC9	; 201
     f0c:	91 05       	cpc	r25, r1
     f0e:	c0 f3       	brcs	.-16     	; 0xf00 <qtm_key_sensors_process+0x51c>
     f10:	ef cf       	rjmp	.-34     	; 0xef0 <qtm_key_sensors_process+0x50c>
     f12:	88 5c       	subi	r24, 0xC8	; 200
     f14:	91 09       	sbc	r25, r1
     f16:	e8 81       	ld	r30, Y
     f18:	f9 81       	ldd	r31, Y+1	; 0x01
     f1a:	21 81       	ldd	r18, Z+1	; 0x01
     f1c:	32 81       	ldd	r19, Z+2	; 0x02
     f1e:	28 53       	subi	r18, 0x38	; 56
     f20:	3f 4f       	sbci	r19, 0xFF	; 255
     f22:	21 83       	std	Z+1, r18	; 0x01
     f24:	32 83       	std	Z+2, r19	; 0x02
     f26:	23 81       	ldd	r18, Z+3	; 0x03
     f28:	21 11       	cpse	r18, r1
     f2a:	96 c0       	rjmp	.+300    	; 0x1058 <qtm_key_sensors_process+0x674>
     f2c:	24 81       	ldd	r18, Z+4	; 0x04
     f2e:	22 23       	and	r18, r18
     f30:	11 f0       	breq	.+4      	; 0xf36 <qtm_key_sensors_process+0x552>
     f32:	21 50       	subi	r18, 0x01	; 1
     f34:	24 83       	std	Z+4, r18	; 0x04
     f36:	e8 81       	ld	r30, Y
     f38:	f9 81       	ldd	r31, Y+1	; 0x01
     f3a:	25 81       	ldd	r18, Z+5	; 0x05
     f3c:	22 23       	and	r18, r18
     f3e:	11 f0       	breq	.+4      	; 0xf44 <qtm_key_sensors_process+0x560>
     f40:	21 50       	subi	r18, 0x01	; 1
     f42:	25 83       	std	Z+5, r18	; 0x05
     f44:	8a 80       	ldd	r8, Y+2	; 0x02
     f46:	9b 80       	ldd	r9, Y+3	; 0x03
     f48:	d4 01       	movw	r26, r8
     f4a:	16 96       	adiw	r26, 0x06	; 6
     f4c:	2c 91       	ld	r18, X
     f4e:	16 97       	sbiw	r26, 0x06	; 6
     f50:	21 11       	cpse	r18, r1
     f52:	1b c0       	rjmp	.+54     	; 0xf8a <qtm_key_sensors_process+0x5a6>
     f54:	8a 80       	ldd	r8, Y+2	; 0x02
     f56:	9b 80       	ldd	r9, Y+3	; 0x03
     f58:	f4 01       	movw	r30, r8
     f5a:	27 81       	ldd	r18, Z+7	; 0x07
     f5c:	21 11       	cpse	r18, r1
     f5e:	48 c0       	rjmp	.+144    	; 0xff0 <qtm_key_sensors_process+0x60c>
     f60:	ea 81       	ldd	r30, Y+2	; 0x02
     f62:	fb 81       	ldd	r31, Y+3	; 0x03
     f64:	23 81       	ldd	r18, Z+3	; 0x03
     f66:	22 23       	and	r18, r18
     f68:	61 f0       	breq	.+24     	; 0xf82 <qtm_key_sensors_process+0x59e>
     f6a:	20 e0       	ldi	r18, 0x00	; 0
     f6c:	30 e0       	ldi	r19, 0x00	; 0
     f6e:	a0 e0       	ldi	r26, 0x00	; 0
     f70:	b0 e0       	ldi	r27, 0x00	; 0
     f72:	ea 81       	ldd	r30, Y+2	; 0x02
     f74:	fb 81       	ldd	r31, Y+3	; 0x03
     f76:	40 81       	ld	r20, Z
     f78:	51 81       	ldd	r21, Z+1	; 0x01
     f7a:	a4 17       	cp	r26, r20
     f7c:	b5 07       	cpc	r27, r21
     f7e:	08 f4       	brcc	.+2      	; 0xf82 <qtm_key_sensors_process+0x59e>
     f80:	6e c0       	rjmp	.+220    	; 0x105e <qtm_key_sensors_process+0x67a>
     f82:	89 3c       	cpi	r24, 0xC9	; 201
     f84:	91 05       	cpc	r25, r1
     f86:	28 f6       	brcc	.-118    	; 0xf12 <qtm_key_sensors_process+0x52e>
     f88:	bb cf       	rjmp	.-138    	; 0xf00 <qtm_key_sensors_process+0x51c>
     f8a:	08 81       	ld	r16, Y
     f8c:	19 81       	ldd	r17, Y+1	; 0x01
     f8e:	f8 01       	movw	r30, r16
     f90:	24 81       	ldd	r18, Z+4	; 0x04
     f92:	21 11       	cpse	r18, r1
     f94:	df cf       	rjmp	.-66     	; 0xf54 <qtm_key_sensors_process+0x570>
     f96:	ed 90       	ld	r14, X+
     f98:	fc 90       	ld	r15, X
     f9a:	60 e0       	ldi	r22, 0x00	; 0
     f9c:	70 e0       	ldi	r23, 0x00	; 0
     f9e:	40 e0       	ldi	r20, 0x00	; 0
     fa0:	50 e0       	ldi	r21, 0x00	; 0
     fa2:	4e 15       	cp	r20, r14
     fa4:	5f 05       	cpc	r21, r15
     fa6:	f1 f0       	breq	.+60     	; 0xfe4 <qtm_key_sensors_process+0x600>
     fa8:	ec 81       	ldd	r30, Y+4	; 0x04
     faa:	fd 81       	ldd	r31, Y+5	; 0x05
     fac:	e6 0f       	add	r30, r22
     fae:	f7 1f       	adc	r31, r23
     fb0:	20 81       	ld	r18, Z
     fb2:	23 30       	cpi	r18, 0x03	; 3
     fb4:	11 f0       	breq	.+4      	; 0xfba <qtm_key_sensors_process+0x5d6>
     fb6:	28 30       	cpi	r18, 0x08	; 8
     fb8:	81 f4       	brne	.+32     	; 0xfda <qtm_key_sensors_process+0x5f6>
     fba:	24 81       	ldd	r18, Z+4	; 0x04
     fbc:	35 81       	ldd	r19, Z+5	; 0x05
     fbe:	c2 80       	ldd	r12, Z+2	; 0x02
     fc0:	d3 80       	ldd	r13, Z+3	; 0x03
     fc2:	d6 01       	movw	r26, r12
     fc4:	11 96       	adiw	r26, 0x01	; 1
     fc6:	cd 90       	ld	r12, X+
     fc8:	dc 90       	ld	r13, X
     fca:	12 97       	sbiw	r26, 0x02	; 2
     fcc:	2c 15       	cp	r18, r12
     fce:	3d 05       	cpc	r19, r13
     fd0:	20 f4       	brcc	.+8      	; 0xfda <qtm_key_sensors_process+0x5f6>
     fd2:	2f 5f       	subi	r18, 0xFF	; 255
     fd4:	3f 4f       	sbci	r19, 0xFF	; 255
     fd6:	24 83       	std	Z+4, r18	; 0x04
     fd8:	35 83       	std	Z+5, r19	; 0x05
     fda:	4f 5f       	subi	r20, 0xFF	; 255
     fdc:	5f 4f       	sbci	r21, 0xFF	; 255
     fde:	6a 5f       	subi	r22, 0xFA	; 250
     fe0:	7f 4f       	sbci	r23, 0xFF	; 255
     fe2:	df cf       	rjmp	.-66     	; 0xfa2 <qtm_key_sensors_process+0x5be>
     fe4:	f4 01       	movw	r30, r8
     fe6:	26 81       	ldd	r18, Z+6	; 0x06
     fe8:	d8 01       	movw	r26, r16
     fea:	14 96       	adiw	r26, 0x04	; 4
     fec:	2c 93       	st	X, r18
     fee:	b2 cf       	rjmp	.-156    	; 0xf54 <qtm_key_sensors_process+0x570>
     ff0:	08 81       	ld	r16, Y
     ff2:	19 81       	ldd	r17, Y+1	; 0x01
     ff4:	d8 01       	movw	r26, r16
     ff6:	15 96       	adiw	r26, 0x05	; 5
     ff8:	2c 91       	ld	r18, X
     ffa:	21 11       	cpse	r18, r1
     ffc:	b1 cf       	rjmp	.-158    	; 0xf60 <qtm_key_sensors_process+0x57c>
     ffe:	e0 80       	ld	r14, Z
    1000:	f1 80       	ldd	r15, Z+1	; 0x01
    1002:	60 e0       	ldi	r22, 0x00	; 0
    1004:	70 e0       	ldi	r23, 0x00	; 0
    1006:	40 e0       	ldi	r20, 0x00	; 0
    1008:	50 e0       	ldi	r21, 0x00	; 0
    100a:	4e 15       	cp	r20, r14
    100c:	5f 05       	cpc	r21, r15
    100e:	f1 f0       	breq	.+60     	; 0x104c <qtm_key_sensors_process+0x668>
    1010:	ec 81       	ldd	r30, Y+4	; 0x04
    1012:	fd 81       	ldd	r31, Y+5	; 0x05
    1014:	e6 0f       	add	r30, r22
    1016:	f7 1f       	adc	r31, r23
    1018:	20 81       	ld	r18, Z
    101a:	23 30       	cpi	r18, 0x03	; 3
    101c:	11 f0       	breq	.+4      	; 0x1022 <qtm_key_sensors_process+0x63e>
    101e:	28 30       	cpi	r18, 0x08	; 8
    1020:	81 f4       	brne	.+32     	; 0x1042 <qtm_key_sensors_process+0x65e>
    1022:	24 81       	ldd	r18, Z+4	; 0x04
    1024:	35 81       	ldd	r19, Z+5	; 0x05
    1026:	c2 80       	ldd	r12, Z+2	; 0x02
    1028:	d3 80       	ldd	r13, Z+3	; 0x03
    102a:	d6 01       	movw	r26, r12
    102c:	11 96       	adiw	r26, 0x01	; 1
    102e:	cd 90       	ld	r12, X+
    1030:	dc 90       	ld	r13, X
    1032:	12 97       	sbiw	r26, 0x02	; 2
    1034:	c2 16       	cp	r12, r18
    1036:	d3 06       	cpc	r13, r19
    1038:	20 f4       	brcc	.+8      	; 0x1042 <qtm_key_sensors_process+0x65e>
    103a:	21 50       	subi	r18, 0x01	; 1
    103c:	31 09       	sbc	r19, r1
    103e:	24 83       	std	Z+4, r18	; 0x04
    1040:	35 83       	std	Z+5, r19	; 0x05
    1042:	4f 5f       	subi	r20, 0xFF	; 255
    1044:	5f 4f       	sbci	r21, 0xFF	; 255
    1046:	6a 5f       	subi	r22, 0xFA	; 250
    1048:	7f 4f       	sbci	r23, 0xFF	; 255
    104a:	df cf       	rjmp	.-66     	; 0x100a <qtm_key_sensors_process+0x626>
    104c:	f4 01       	movw	r30, r8
    104e:	27 81       	ldd	r18, Z+7	; 0x07
    1050:	d8 01       	movw	r26, r16
    1052:	15 96       	adiw	r26, 0x05	; 5
    1054:	2c 93       	st	X, r18
    1056:	84 cf       	rjmp	.-248    	; 0xf60 <qtm_key_sensors_process+0x57c>
    1058:	21 50       	subi	r18, 0x01	; 1
    105a:	23 83       	std	Z+3, r18	; 0x03
    105c:	81 cf       	rjmp	.-254    	; 0xf60 <qtm_key_sensors_process+0x57c>
    105e:	a9 01       	movw	r20, r18
    1060:	44 0f       	add	r20, r20
    1062:	55 1f       	adc	r21, r21
    1064:	ec 81       	ldd	r30, Y+4	; 0x04
    1066:	fd 81       	ldd	r31, Y+5	; 0x05
    1068:	e4 0f       	add	r30, r20
    106a:	f5 1f       	adc	r31, r21
    106c:	60 81       	ld	r22, Z
    106e:	65 38       	cpi	r22, 0x85	; 133
    1070:	09 f0       	breq	.+2      	; 0x1074 <qtm_key_sensors_process+0x690>
    1072:	47 c0       	rjmp	.+142    	; 0x1102 <qtm_key_sensors_process+0x71e>
    1074:	61 81       	ldd	r22, Z+1	; 0x01
    1076:	66 23       	and	r22, r22
    1078:	19 f0       	breq	.+6      	; 0x1080 <qtm_key_sensors_process+0x69c>
    107a:	61 50       	subi	r22, 0x01	; 1
    107c:	61 83       	std	Z+1, r22	; 0x01
    107e:	41 c0       	rjmp	.+130    	; 0x1102 <qtm_key_sensors_process+0x71e>
    1080:	a0 82       	st	Z, r10
    1082:	6c 81       	ldd	r22, Y+4	; 0x04
    1084:	7d 81       	ldd	r23, Y+5	; 0x05
    1086:	fb 01       	movw	r30, r22
    1088:	e4 0f       	add	r30, r20
    108a:	f5 1f       	adc	r31, r21
    108c:	02 80       	ldd	r0, Z+2	; 0x02
    108e:	f3 81       	ldd	r31, Z+3	; 0x03
    1090:	e0 2d       	mov	r30, r0
    1092:	b0 82       	st	Z, r11
    1094:	ee 81       	ldd	r30, Y+6	; 0x06
    1096:	ff 81       	ldd	r31, Y+7	; 0x07
    1098:	e2 0f       	add	r30, r18
    109a:	f3 1f       	adc	r31, r19
    109c:	d2 80       	ldd	r13, Z+2	; 0x02
    109e:	dd 20       	and	r13, r13
    10a0:	81 f1       	breq	.+96     	; 0x1102 <qtm_key_sensors_process+0x71e>
    10a2:	40 e0       	ldi	r20, 0x00	; 0
    10a4:	50 e0       	ldi	r21, 0x00	; 0
    10a6:	00 e0       	ldi	r16, 0x00	; 0
    10a8:	10 e0       	ldi	r17, 0x00	; 0
    10aa:	ea 81       	ldd	r30, Y+2	; 0x02
    10ac:	fb 81       	ldd	r31, Y+3	; 0x03
    10ae:	60 81       	ld	r22, Z
    10b0:	71 81       	ldd	r23, Z+1	; 0x01
    10b2:	06 17       	cp	r16, r22
    10b4:	17 07       	cpc	r17, r23
    10b6:	28 f5       	brcc	.+74     	; 0x1102 <qtm_key_sensors_process+0x71e>
    10b8:	ee 81       	ldd	r30, Y+6	; 0x06
    10ba:	ff 81       	ldd	r31, Y+7	; 0x07
    10bc:	e4 0f       	add	r30, r20
    10be:	f5 1f       	adc	r31, r21
    10c0:	62 81       	ldd	r22, Z+2	; 0x02
    10c2:	d6 12       	cpse	r13, r22
    10c4:	19 c0       	rjmp	.+50     	; 0x10f8 <qtm_key_sensors_process+0x714>
    10c6:	ba 01       	movw	r22, r20
    10c8:	66 0f       	add	r22, r22
    10ca:	77 1f       	adc	r23, r23
    10cc:	ec 81       	ldd	r30, Y+4	; 0x04
    10ce:	fd 81       	ldd	r31, Y+5	; 0x05
    10d0:	4f 01       	movw	r8, r30
    10d2:	86 0e       	add	r8, r22
    10d4:	97 1e       	adc	r9, r23
    10d6:	f4 01       	movw	r30, r8
    10d8:	e2 80       	ldd	r14, Z+2	; 0x02
    10da:	f3 80       	ldd	r15, Z+3	; 0x03
    10dc:	f7 01       	movw	r30, r14
    10de:	f0 80       	ld	r15, Z
    10e0:	f0 fe       	sbrs	r15, 0
    10e2:	0a c0       	rjmp	.+20     	; 0x10f8 <qtm_key_sensors_process+0x714>
    10e4:	f4 01       	movw	r30, r8
    10e6:	a0 82       	st	Z, r10
    10e8:	ec 81       	ldd	r30, Y+4	; 0x04
    10ea:	fd 81       	ldd	r31, Y+5	; 0x05
    10ec:	e6 0f       	add	r30, r22
    10ee:	f7 1f       	adc	r31, r23
    10f0:	02 80       	ldd	r0, Z+2	; 0x02
    10f2:	f3 81       	ldd	r31, Z+3	; 0x03
    10f4:	e0 2d       	mov	r30, r0
    10f6:	b0 82       	st	Z, r11
    10f8:	0f 5f       	subi	r16, 0xFF	; 255
    10fa:	1f 4f       	sbci	r17, 0xFF	; 255
    10fc:	4d 5f       	subi	r20, 0xFD	; 253
    10fe:	5f 4f       	sbci	r21, 0xFF	; 255
    1100:	d4 cf       	rjmp	.-88     	; 0x10aa <qtm_key_sensors_process+0x6c6>
    1102:	11 96       	adiw	r26, 0x01	; 1
    1104:	2d 5f       	subi	r18, 0xFD	; 253
    1106:	3f 4f       	sbci	r19, 0xFF	; 255
    1108:	34 cf       	rjmp	.-408    	; 0xf72 <qtm_key_sensors_process+0x58e>
    110a:	8b e0       	ldi	r24, 0x0B	; 11
    110c:	df 91       	pop	r29
    110e:	cf 91       	pop	r28
    1110:	1f 91       	pop	r17
    1112:	0f 91       	pop	r16
    1114:	ff 90       	pop	r15
    1116:	ef 90       	pop	r14
    1118:	df 90       	pop	r13
    111a:	cf 90       	pop	r12
    111c:	bf 90       	pop	r11
    111e:	af 90       	pop	r10
    1120:	9f 90       	pop	r9
    1122:	8f 90       	pop	r8
    1124:	7f 90       	pop	r7
    1126:	6f 90       	pop	r6
    1128:	5f 90       	pop	r5
    112a:	4f 90       	pop	r4
    112c:	3f 90       	pop	r3
    112e:	2f 90       	pop	r2
    1130:	08 95       	ret

00001132 <divide>:
    1132:	9c 01       	movw	r18, r24
    1134:	61 15       	cp	r22, r1
    1136:	71 05       	cpc	r23, r1
    1138:	09 f1       	breq	.+66     	; 0x117c <divide+0x4a>
    113a:	4f 5f       	subi	r20, 0xFF	; 255
    113c:	37 fd       	sbrc	r19, 7
    113e:	06 c0       	rjmp	.+12     	; 0x114c <divide+0x1a>
    1140:	44 23       	and	r20, r20
    1142:	21 f0       	breq	.+8      	; 0x114c <divide+0x1a>
    1144:	41 50       	subi	r20, 0x01	; 1
    1146:	22 0f       	add	r18, r18
    1148:	33 1f       	adc	r19, r19
    114a:	f8 cf       	rjmp	.-16     	; 0x113c <divide+0xa>
    114c:	77 fd       	sbrc	r23, 7
    114e:	04 c0       	rjmp	.+8      	; 0x1158 <divide+0x26>
    1150:	4f 5f       	subi	r20, 0xFF	; 255
    1152:	66 0f       	add	r22, r22
    1154:	77 1f       	adc	r23, r23
    1156:	fa cf       	rjmp	.-12     	; 0x114c <divide+0x1a>
    1158:	80 e0       	ldi	r24, 0x00	; 0
    115a:	90 e0       	ldi	r25, 0x00	; 0
    115c:	44 23       	and	r20, r20
    115e:	81 f0       	breq	.+32     	; 0x1180 <divide+0x4e>
    1160:	97 fd       	sbrc	r25, 7
    1162:	0c c0       	rjmp	.+24     	; 0x117c <divide+0x4a>
    1164:	88 0f       	add	r24, r24
    1166:	99 1f       	adc	r25, r25
    1168:	41 50       	subi	r20, 0x01	; 1
    116a:	26 17       	cp	r18, r22
    116c:	37 07       	cpc	r19, r23
    116e:	18 f0       	brcs	.+6      	; 0x1176 <divide+0x44>
    1170:	26 1b       	sub	r18, r22
    1172:	37 0b       	sbc	r19, r23
    1174:	01 96       	adiw	r24, 0x01	; 1
    1176:	76 95       	lsr	r23
    1178:	67 95       	ror	r22
    117a:	f0 cf       	rjmp	.-32     	; 0x115c <divide+0x2a>
    117c:	8f ef       	ldi	r24, 0xFF	; 255
    117e:	9f ef       	ldi	r25, 0xFF	; 255
    1180:	08 95       	ret

00001182 <qtm_init_scroller_module>:
    1182:	cf 93       	push	r28
    1184:	df 93       	push	r29
    1186:	fc 01       	movw	r30, r24
    1188:	89 2b       	or	r24, r25
    118a:	b9 f1       	breq	.+110    	; 0x11fa <qtm_init_scroller_module+0x78>
    118c:	24 81       	ldd	r18, Z+4	; 0x04
    118e:	35 81       	ldd	r19, Z+5	; 0x05
    1190:	21 15       	cp	r18, r1
    1192:	31 05       	cpc	r19, r1
    1194:	91 f1       	breq	.+100    	; 0x11fa <qtm_init_scroller_module+0x78>
    1196:	46 81       	ldd	r20, Z+6	; 0x06
    1198:	57 81       	ldd	r21, Z+7	; 0x07
    119a:	41 15       	cp	r20, r1
    119c:	51 05       	cpc	r21, r1
    119e:	69 f1       	breq	.+90     	; 0x11fa <qtm_init_scroller_module+0x78>
    11a0:	a0 81       	ld	r26, Z
    11a2:	b1 81       	ldd	r27, Z+1	; 0x01
    11a4:	1c 92       	st	X, r1
    11a6:	90 e0       	ldi	r25, 0x00	; 0
    11a8:	a2 81       	ldd	r26, Z+2	; 0x02
    11aa:	b3 81       	ldd	r27, Z+3	; 0x03
    11ac:	12 96       	adiw	r26, 0x02	; 2
    11ae:	8c 91       	ld	r24, X
    11b0:	98 17       	cp	r25, r24
    11b2:	08 f5       	brcc	.+66     	; 0x11f6 <qtm_init_scroller_module+0x74>
    11b4:	d9 01       	movw	r26, r18
    11b6:	89 e0       	ldi	r24, 0x09	; 9
    11b8:	98 9f       	mul	r25, r24
    11ba:	a0 0d       	add	r26, r0
    11bc:	b1 1d       	adc	r27, r1
    11be:	11 24       	eor	r1, r1
    11c0:	11 96       	adiw	r26, 0x01	; 1
    11c2:	1c 92       	st	X, r1
    11c4:	11 97       	sbiw	r26, 0x01	; 1
    11c6:	ea 01       	movw	r28, r20
    11c8:	88 e0       	ldi	r24, 0x08	; 8
    11ca:	98 9f       	mul	r25, r24
    11cc:	c0 0d       	add	r28, r0
    11ce:	d1 1d       	adc	r29, r1
    11d0:	11 24       	eor	r1, r1
    11d2:	8d 81       	ldd	r24, Y+5	; 0x05
    11d4:	12 96       	adiw	r26, 0x02	; 2
    11d6:	8c 93       	st	X, r24
    11d8:	12 97       	sbiw	r26, 0x02	; 2
    11da:	13 96       	adiw	r26, 0x03	; 3
    11dc:	1d 92       	st	X+, r1
    11de:	1c 92       	st	X, r1
    11e0:	14 97       	sbiw	r26, 0x04	; 4
    11e2:	15 96       	adiw	r26, 0x05	; 5
    11e4:	1d 92       	st	X+, r1
    11e6:	1c 92       	st	X, r1
    11e8:	16 97       	sbiw	r26, 0x06	; 6
    11ea:	17 96       	adiw	r26, 0x07	; 7
    11ec:	1d 92       	st	X+, r1
    11ee:	1c 92       	st	X, r1
    11f0:	18 97       	sbiw	r26, 0x08	; 8
    11f2:	9f 5f       	subi	r25, 0xFF	; 255
    11f4:	d9 cf       	rjmp	.-78     	; 0x11a8 <qtm_init_scroller_module+0x26>
    11f6:	80 e0       	ldi	r24, 0x00	; 0
    11f8:	01 c0       	rjmp	.+2      	; 0x11fc <qtm_init_scroller_module+0x7a>
    11fa:	8b e0       	ldi	r24, 0x0B	; 11
    11fc:	df 91       	pop	r29
    11fe:	cf 91       	pop	r28
    1200:	08 95       	ret

00001202 <qtm_scroller_process>:
    1202:	2f 92       	push	r2
    1204:	3f 92       	push	r3
    1206:	4f 92       	push	r4
    1208:	5f 92       	push	r5
    120a:	6f 92       	push	r6
    120c:	7f 92       	push	r7
    120e:	8f 92       	push	r8
    1210:	9f 92       	push	r9
    1212:	af 92       	push	r10
    1214:	bf 92       	push	r11
    1216:	cf 92       	push	r12
    1218:	df 92       	push	r13
    121a:	ef 92       	push	r14
    121c:	ff 92       	push	r15
    121e:	0f 93       	push	r16
    1220:	1f 93       	push	r17
    1222:	cf 93       	push	r28
    1224:	df 93       	push	r29
    1226:	cd b7       	in	r28, 0x3d	; 61
    1228:	de b7       	in	r29, 0x3e	; 62
    122a:	61 97       	sbiw	r28, 0x11	; 17
    122c:	cd bf       	out	0x3d, r28	; 61
    122e:	de bf       	out	0x3e, r29	; 62
    1230:	fc 01       	movw	r30, r24
    1232:	00 97       	sbiw	r24, 0x00	; 0
    1234:	09 f4       	brne	.+2      	; 0x1238 <qtm_scroller_process+0x36>
    1236:	dc c2       	rjmp	.+1464   	; 0x17f0 <qtm_scroller_process+0x5ee>
    1238:	e4 80       	ldd	r14, Z+4	; 0x04
    123a:	f5 80       	ldd	r15, Z+5	; 0x05
    123c:	ea 86       	std	Y+10, r14	; 0x0a
    123e:	fb 86       	std	Y+11, r15	; 0x0b
    1240:	ef 28       	or	r14, r15
    1242:	09 f4       	brne	.+2      	; 0x1246 <qtm_scroller_process+0x44>
    1244:	d5 c2       	rjmp	.+1450   	; 0x17f0 <qtm_scroller_process+0x5ee>
    1246:	e6 80       	ldd	r14, Z+6	; 0x06
    1248:	f7 80       	ldd	r15, Z+7	; 0x07
    124a:	e8 86       	std	Y+8, r14	; 0x08
    124c:	f9 86       	std	Y+9, r15	; 0x09
    124e:	ef 28       	or	r14, r15
    1250:	09 f4       	brne	.+2      	; 0x1254 <qtm_scroller_process+0x52>
    1252:	ce c2       	rjmp	.+1436   	; 0x17f0 <qtm_scroller_process+0x5ee>
    1254:	a2 81       	ldd	r26, Z+2	; 0x02
    1256:	b3 81       	ldd	r27, Z+3	; 0x03
    1258:	4d 90       	ld	r4, X+
    125a:	5c 90       	ld	r5, X
    125c:	41 14       	cp	r4, r1
    125e:	51 04       	cpc	r5, r1
    1260:	09 f4       	brne	.+2      	; 0x1264 <qtm_scroller_process+0x62>
    1262:	c6 c2       	rjmp	.+1420   	; 0x17f0 <qtm_scroller_process+0x5ee>
    1264:	8e 83       	std	Y+6, r24	; 0x06
    1266:	9f 83       	std	Y+7, r25	; 0x07
    1268:	00 e0       	ldi	r16, 0x00	; 0
    126a:	1a 82       	std	Y+2, r1	; 0x02
    126c:	91 2c       	mov	r9, r1
    126e:	16 e0       	ldi	r17, 0x06	; 6
    1270:	81 2e       	mov	r8, r17
    1272:	ae 81       	ldd	r26, Y+6	; 0x06
    1274:	bf 81       	ldd	r27, Y+7	; 0x07
    1276:	12 96       	adiw	r26, 0x02	; 2
    1278:	ed 91       	ld	r30, X+
    127a:	fc 91       	ld	r31, X
    127c:	13 97       	sbiw	r26, 0x03	; 3
    127e:	82 81       	ldd	r24, Z+2	; 0x02
    1280:	98 16       	cp	r9, r24
    1282:	08 f0       	brcs	.+2      	; 0x1286 <qtm_scroller_process+0x84>
    1284:	b0 c2       	rjmp	.+1376   	; 0x17e6 <qtm_scroller_process+0x5e4>
    1286:	68 84       	ldd	r6, Y+8	; 0x08
    1288:	79 84       	ldd	r7, Y+9	; 0x09
    128a:	28 e0       	ldi	r18, 0x08	; 8
    128c:	92 9e       	mul	r9, r18
    128e:	60 0c       	add	r6, r0
    1290:	71 1c       	adc	r7, r1
    1292:	11 24       	eor	r1, r1
    1294:	d3 01       	movw	r26, r6
    1296:	11 96       	adiw	r26, 0x01	; 1
    1298:	4d 91       	ld	r20, X+
    129a:	5c 91       	ld	r21, X
    129c:	12 97       	sbiw	r26, 0x02	; 2
    129e:	13 96       	adiw	r26, 0x03	; 3
    12a0:	ac 90       	ld	r10, X
    12a2:	7a 01       	movw	r14, r20
    12a4:	ea 0c       	add	r14, r10
    12a6:	f1 1c       	adc	r15, r1
    12a8:	ca 01       	movw	r24, r20
    12aa:	60 e0       	ldi	r22, 0x00	; 0
    12ac:	8e 15       	cp	r24, r14
    12ae:	9f 05       	cpc	r25, r15
    12b0:	70 f4       	brcc	.+28     	; 0x12ce <qtm_scroller_process+0xcc>
    12b2:	88 9e       	mul	r8, r24
    12b4:	f0 01       	movw	r30, r0
    12b6:	89 9e       	mul	r8, r25
    12b8:	f0 0d       	add	r31, r0
    12ba:	11 24       	eor	r1, r1
    12bc:	e4 0d       	add	r30, r4
    12be:	f5 1d       	adc	r31, r5
    12c0:	20 81       	ld	r18, Z
    12c2:	25 38       	cpi	r18, 0x85	; 133
    12c4:	11 f4       	brne	.+4      	; 0x12ca <qtm_scroller_process+0xc8>
    12c6:	c7 01       	movw	r24, r14
    12c8:	61 e0       	ldi	r22, 0x01	; 1
    12ca:	01 96       	adiw	r24, 0x01	; 1
    12cc:	ef cf       	rjmp	.-34     	; 0x12ac <qtm_scroller_process+0xaa>
    12ce:	84 9e       	mul	r8, r20
    12d0:	f0 01       	movw	r30, r0
    12d2:	85 9e       	mul	r8, r21
    12d4:	f0 0d       	add	r31, r0
    12d6:	11 24       	eor	r1, r1
    12d8:	ec 83       	std	Y+4, r30	; 0x04
    12da:	fd 83       	std	Y+5, r31	; 0x05
    12dc:	34 97       	sbiw	r30, 0x04	; 4
    12de:	e4 0d       	add	r30, r4
    12e0:	f5 1d       	adc	r31, r5
    12e2:	26 e0       	ldi	r18, 0x06	; 6
    12e4:	a2 9e       	mul	r10, r18
    12e6:	50 01       	movw	r10, r0
    12e8:	11 24       	eor	r1, r1
    12ea:	1a 01       	movw	r2, r20
    12ec:	70 e0       	ldi	r23, 0x00	; 0
    12ee:	18 8a       	std	Y+16, r1	; 0x10
    12f0:	19 8a       	std	Y+17, r1	; 0x11
    12f2:	2e 14       	cp	r2, r14
    12f4:	3f 04       	cpc	r3, r15
    12f6:	08 f0       	brcs	.+2      	; 0x12fa <qtm_scroller_process+0xf8>
    12f8:	4f c0       	rjmp	.+158    	; 0x1398 <qtm_scroller_process+0x196>
    12fa:	86 81       	ldd	r24, Z+6	; 0x06
    12fc:	97 81       	ldd	r25, Z+7	; 0x07
    12fe:	dc 01       	movw	r26, r24
    1300:	11 96       	adiw	r26, 0x01	; 1
    1302:	2d 91       	ld	r18, X+
    1304:	3c 91       	ld	r19, X
    1306:	12 97       	sbiw	r26, 0x02	; 2
    1308:	80 85       	ldd	r24, Z+8	; 0x08
    130a:	91 85       	ldd	r25, Z+9	; 0x09
    130c:	28 1b       	sub	r18, r24
    130e:	39 0b       	sbc	r19, r25
    1310:	12 16       	cp	r1, r18
    1312:	13 06       	cpc	r1, r19
    1314:	14 f0       	brlt	.+4      	; 0x131a <qtm_scroller_process+0x118>
    1316:	20 e0       	ldi	r18, 0x00	; 0
    1318:	30 e0       	ldi	r19, 0x00	; 0
    131a:	24 16       	cp	r2, r20
    131c:	35 06       	cpc	r3, r21
    131e:	a9 f4       	brne	.+42     	; 0x134a <qtm_scroller_process+0x148>
    1320:	d3 01       	movw	r26, r6
    1322:	8c 91       	ld	r24, X
    1324:	81 30       	cpi	r24, 0x01	; 1
    1326:	f9 f4       	brne	.+62     	; 0x1366 <qtm_scroller_process+0x164>
    1328:	6f 01       	movw	r12, r30
    132a:	ca 0c       	add	r12, r10
    132c:	db 1c       	adc	r13, r11
    132e:	d6 01       	movw	r26, r12
    1330:	8d 91       	ld	r24, X+
    1332:	9c 91       	ld	r25, X
    1334:	dc 01       	movw	r26, r24
    1336:	11 96       	adiw	r26, 0x01	; 1
    1338:	8d 91       	ld	r24, X+
    133a:	9c 91       	ld	r25, X
    133c:	12 97       	sbiw	r26, 0x02	; 2
    133e:	d6 01       	movw	r26, r12
    1340:	12 96       	adiw	r26, 0x02	; 2
    1342:	cd 90       	ld	r12, X+
    1344:	dc 90       	ld	r13, X
    1346:	13 97       	sbiw	r26, 0x03	; 3
    1348:	09 c0       	rjmp	.+18     	; 0x135c <qtm_scroller_process+0x15a>
    134a:	80 81       	ld	r24, Z
    134c:	91 81       	ldd	r25, Z+1	; 0x01
    134e:	dc 01       	movw	r26, r24
    1350:	11 96       	adiw	r26, 0x01	; 1
    1352:	8d 91       	ld	r24, X+
    1354:	9c 91       	ld	r25, X
    1356:	12 97       	sbiw	r26, 0x02	; 2
    1358:	c2 80       	ldd	r12, Z+2	; 0x02
    135a:	d3 80       	ldd	r13, Z+3	; 0x03
    135c:	8c 19       	sub	r24, r12
    135e:	9d 09       	sbc	r25, r13
    1360:	18 16       	cp	r1, r24
    1362:	19 06       	cpc	r1, r25
    1364:	14 f0       	brlt	.+4      	; 0x136a <qtm_scroller_process+0x168>
    1366:	80 e0       	ldi	r24, 0x00	; 0
    1368:	90 e0       	ldi	r25, 0x00	; 0
    136a:	28 0f       	add	r18, r24
    136c:	39 1f       	adc	r19, r25
    136e:	d3 01       	movw	r26, r6
    1370:	16 96       	adiw	r26, 0x06	; 6
    1372:	8d 91       	ld	r24, X+
    1374:	9c 91       	ld	r25, X
    1376:	17 97       	sbiw	r26, 0x07	; 7
    1378:	28 17       	cp	r18, r24
    137a:	39 07       	cpc	r19, r25
    137c:	40 f0       	brcs	.+16     	; 0x138e <qtm_scroller_process+0x18c>
    137e:	88 89       	ldd	r24, Y+16	; 0x10
    1380:	99 89       	ldd	r25, Y+17	; 0x11
    1382:	82 17       	cp	r24, r18
    1384:	93 07       	cpc	r25, r19
    1386:	10 f4       	brcc	.+4      	; 0x138c <qtm_scroller_process+0x18a>
    1388:	28 8b       	std	Y+16, r18	; 0x10
    138a:	39 8b       	std	Y+17, r19	; 0x11
    138c:	71 e0       	ldi	r23, 0x01	; 1
    138e:	9f ef       	ldi	r25, 0xFF	; 255
    1390:	29 1a       	sub	r2, r25
    1392:	39 0a       	sbc	r3, r25
    1394:	36 96       	adiw	r30, 0x06	; 6
    1396:	ad cf       	rjmp	.-166    	; 0x12f2 <qtm_scroller_process+0xf0>
    1398:	71 11       	cpse	r23, r1
    139a:	01 c0       	rjmp	.+2      	; 0x139e <qtm_scroller_process+0x19c>
    139c:	60 e0       	ldi	r22, 0x00	; 0
    139e:	a9 e0       	ldi	r26, 0x09	; 9
    13a0:	9a 9e       	mul	r9, r26
    13a2:	90 01       	movw	r18, r0
    13a4:	11 24       	eor	r1, r1
    13a6:	ea 84       	ldd	r14, Y+10	; 0x0a
    13a8:	fb 84       	ldd	r15, Y+11	; 0x0b
    13aa:	e2 0e       	add	r14, r18
    13ac:	f3 1e       	adc	r15, r19
    13ae:	ee 86       	std	Y+14, r14	; 0x0e
    13b0:	ff 86       	std	Y+15, r15	; 0x0f
    13b2:	d7 01       	movw	r26, r14
    13b4:	8c 91       	ld	r24, X
    13b6:	ae 81       	ldd	r26, Y+6	; 0x06
    13b8:	bf 81       	ldd	r27, Y+7	; 0x07
    13ba:	14 96       	adiw	r26, 0x04	; 4
    13bc:	ed 91       	ld	r30, X+
    13be:	fc 91       	ld	r31, X
    13c0:	15 97       	sbiw	r26, 0x05	; 5
    13c2:	b8 2f       	mov	r27, r24
    13c4:	b1 70       	andi	r27, 0x01	; 1
    13c6:	bd 87       	std	Y+13, r27	; 0x0d
    13c8:	80 ff       	sbrs	r24, 0
    13ca:	1e c0       	rjmp	.+60     	; 0x1408 <qtm_scroller_process+0x206>
    13cc:	7f 01       	movw	r14, r30
    13ce:	e2 0e       	add	r14, r18
    13d0:	f3 1e       	adc	r15, r19
    13d2:	d7 01       	movw	r26, r14
    13d4:	17 96       	adiw	r26, 0x07	; 7
    13d6:	cd 90       	ld	r12, X+
    13d8:	dc 90       	ld	r13, X
    13da:	18 97       	sbiw	r26, 0x08	; 8
    13dc:	c6 01       	movw	r24, r12
    13de:	88 0f       	add	r24, r24
    13e0:	99 1f       	adc	r25, r25
    13e2:	8c 0d       	add	r24, r12
    13e4:	9d 1d       	adc	r25, r13
    13e6:	a8 89       	ldd	r26, Y+16	; 0x10
    13e8:	b9 89       	ldd	r27, Y+17	; 0x11
    13ea:	8a 0f       	add	r24, r26
    13ec:	9b 1f       	adc	r25, r27
    13ee:	96 95       	lsr	r25
    13f0:	87 95       	ror	r24
    13f2:	96 95       	lsr	r25
    13f4:	87 95       	ror	r24
    13f6:	d7 01       	movw	r26, r14
    13f8:	17 96       	adiw	r26, 0x07	; 7
    13fa:	8d 93       	st	X+, r24
    13fc:	9c 93       	st	X, r25
    13fe:	18 97       	sbiw	r26, 0x08	; 8
    1400:	77 23       	and	r23, r23
    1402:	61 f0       	breq	.+24     	; 0x141c <qtm_scroller_process+0x21a>
    1404:	61 e0       	ldi	r22, 0x01	; 1
    1406:	0a c0       	rjmp	.+20     	; 0x141c <qtm_scroller_process+0x21a>
    1408:	cf 01       	movw	r24, r30
    140a:	82 0f       	add	r24, r18
    140c:	93 1f       	adc	r25, r19
    140e:	e8 88       	ldd	r14, Y+16	; 0x10
    1410:	f9 88       	ldd	r15, Y+17	; 0x11
    1412:	dc 01       	movw	r26, r24
    1414:	17 96       	adiw	r26, 0x07	; 7
    1416:	ed 92       	st	X+, r14
    1418:	fc 92       	st	X, r15
    141a:	18 97       	sbiw	r26, 0x08	; 8
    141c:	d3 01       	movw	r26, r6
    141e:	bc 91       	ld	r27, X
    1420:	b9 83       	std	Y+1, r27	; 0x01
    1422:	b2 30       	cpi	r27, 0x02	; 2
    1424:	08 f0       	brcs	.+2      	; 0x1428 <qtm_scroller_process+0x226>
    1426:	d4 c1       	rjmp	.+936    	; 0x17d0 <qtm_scroller_process+0x5ce>
    1428:	d3 01       	movw	r26, r6
    142a:	14 96       	adiw	r26, 0x04	; 4
    142c:	1c 91       	ld	r17, X
    142e:	10 3d       	cpi	r17, 0xD0	; 208
    1430:	08 f0       	brcs	.+2      	; 0x1434 <qtm_scroller_process+0x232>
    1432:	ce c1       	rjmp	.+924    	; 0x17d0 <qtm_scroller_process+0x5ce>
    1434:	61 11       	cpse	r22, r1
    1436:	05 c0       	rjmp	.+10     	; 0x1442 <qtm_scroller_process+0x240>
    1438:	e2 0f       	add	r30, r18
    143a:	f3 1f       	adc	r31, r19
    143c:	17 82       	std	Z+7, r1	; 0x07
    143e:	10 86       	std	Z+8, r1	; 0x08
    1440:	c8 c1       	rjmp	.+912    	; 0x17d2 <qtm_scroller_process+0x5d0>
    1442:	f3 01       	movw	r30, r6
    1444:	f3 81       	ldd	r31, Z+3	; 0x03
    1446:	fb 83       	std	Y+3, r31	; 0x03
    1448:	e1 2e       	mov	r14, r17
    144a:	e2 94       	swap	r14
    144c:	9f e0       	ldi	r25, 0x0F	; 15
    144e:	e9 22       	and	r14, r25
    1450:	ec 86       	std	Y+12, r14	; 0x0c
    1452:	ac 80       	ldd	r10, Y+4	; 0x04
    1454:	bd 80       	ldd	r11, Y+5	; 0x05
    1456:	a4 0c       	add	r10, r4
    1458:	b5 1c       	adc	r11, r5
    145a:	f5 01       	movw	r30, r10
    145c:	ba 01       	movw	r22, r20
    145e:	21 2c       	mov	r2, r1
    1460:	31 2c       	mov	r3, r1
    1462:	20 e0       	ldi	r18, 0x00	; 0
    1464:	30 e0       	ldi	r19, 0x00	; 0
    1466:	8b 81       	ldd	r24, Y+3	; 0x03
    1468:	e8 2e       	mov	r14, r24
    146a:	f1 2c       	mov	r15, r1
    146c:	6a 01       	movw	r12, r20
    146e:	ce 0c       	add	r12, r14
    1470:	df 1c       	adc	r13, r15
    1472:	6c 15       	cp	r22, r12
    1474:	7d 05       	cpc	r23, r13
    1476:	b0 f4       	brcc	.+44     	; 0x14a4 <qtm_scroller_process+0x2a2>
    1478:	a2 81       	ldd	r26, Z+2	; 0x02
    147a:	b3 81       	ldd	r27, Z+3	; 0x03
    147c:	11 96       	adiw	r26, 0x01	; 1
    147e:	8d 91       	ld	r24, X+
    1480:	9c 91       	ld	r25, X
    1482:	12 97       	sbiw	r26, 0x02	; 2
    1484:	a4 81       	ldd	r26, Z+4	; 0x04
    1486:	b5 81       	ldd	r27, Z+5	; 0x05
    1488:	8a 1b       	sub	r24, r26
    148a:	9b 0b       	sbc	r25, r27
    148c:	18 16       	cp	r1, r24
    148e:	19 06       	cpc	r1, r25
    1490:	2c f4       	brge	.+10     	; 0x149c <qtm_scroller_process+0x29a>
    1492:	28 16       	cp	r2, r24
    1494:	39 06       	cpc	r3, r25
    1496:	14 f4       	brge	.+4      	; 0x149c <qtm_scroller_process+0x29a>
    1498:	1c 01       	movw	r2, r24
    149a:	9b 01       	movw	r18, r22
    149c:	6f 5f       	subi	r22, 0xFF	; 255
    149e:	7f 4f       	sbci	r23, 0xFF	; 255
    14a0:	36 96       	adiw	r30, 0x06	; 6
    14a2:	e7 cf       	rjmp	.-50     	; 0x1472 <qtm_scroller_process+0x270>
    14a4:	42 17       	cp	r20, r18
    14a6:	53 07       	cpc	r21, r19
    14a8:	79 f5       	brne	.+94     	; 0x1508 <qtm_scroller_process+0x306>
    14aa:	99 81       	ldd	r25, Y+1	; 0x01
    14ac:	91 30       	cpi	r25, 0x01	; 1
    14ae:	09 f0       	breq	.+2      	; 0x14b2 <qtm_scroller_process+0x2b0>
    14b0:	a1 c1       	rjmp	.+834    	; 0x17f4 <qtm_scroller_process+0x5f2>
    14b2:	8c 9c       	mul	r8, r12
    14b4:	f0 01       	movw	r30, r0
    14b6:	8d 9c       	mul	r8, r13
    14b8:	f0 0d       	add	r31, r0
    14ba:	11 24       	eor	r1, r1
    14bc:	36 97       	sbiw	r30, 0x06	; 6
    14be:	e4 0d       	add	r30, r4
    14c0:	f5 1d       	adc	r31, r5
    14c2:	a2 81       	ldd	r26, Z+2	; 0x02
    14c4:	b3 81       	ldd	r27, Z+3	; 0x03
    14c6:	11 96       	adiw	r26, 0x01	; 1
    14c8:	6d 91       	ld	r22, X+
    14ca:	7c 91       	ld	r23, X
    14cc:	12 97       	sbiw	r26, 0x02	; 2
    14ce:	84 81       	ldd	r24, Z+4	; 0x04
    14d0:	95 81       	ldd	r25, Z+5	; 0x05
    14d2:	68 1b       	sub	r22, r24
    14d4:	79 0b       	sbc	r23, r25
    14d6:	ec 81       	ldd	r30, Y+4	; 0x04
    14d8:	fd 81       	ldd	r31, Y+5	; 0x05
    14da:	36 96       	adiw	r30, 0x06	; 6
    14dc:	e4 0d       	add	r30, r4
    14de:	f5 1d       	adc	r31, r5
    14e0:	a2 81       	ldd	r26, Z+2	; 0x02
    14e2:	b3 81       	ldd	r27, Z+3	; 0x03
    14e4:	11 96       	adiw	r26, 0x01	; 1
    14e6:	8d 91       	ld	r24, X+
    14e8:	9c 91       	ld	r25, X
    14ea:	12 97       	sbiw	r26, 0x02	; 2
    14ec:	04 80       	ldd	r0, Z+4	; 0x04
    14ee:	f5 81       	ldd	r31, Z+5	; 0x05
    14f0:	e0 2d       	mov	r30, r0
    14f2:	8e 1b       	sub	r24, r30
    14f4:	9f 0b       	sbc	r25, r31
    14f6:	97 ff       	sbrs	r25, 7
    14f8:	02 c0       	rjmp	.+4      	; 0x14fe <qtm_scroller_process+0x2fc>
    14fa:	80 e0       	ldi	r24, 0x00	; 0
    14fc:	90 e0       	ldi	r25, 0x00	; 0
    14fe:	86 17       	cp	r24, r22
    1500:	97 07       	cpc	r25, r23
    1502:	0c f4       	brge	.+2      	; 0x1506 <qtm_scroller_process+0x304>
    1504:	7b c1       	rjmp	.+758    	; 0x17fc <qtm_scroller_process+0x5fa>
    1506:	12 c0       	rjmp	.+36     	; 0x152c <qtm_scroller_process+0x32a>
    1508:	82 9e       	mul	r8, r18
    150a:	f0 01       	movw	r30, r0
    150c:	83 9e       	mul	r8, r19
    150e:	f0 0d       	add	r31, r0
    1510:	11 24       	eor	r1, r1
    1512:	36 97       	sbiw	r30, 0x06	; 6
    1514:	e4 0d       	add	r30, r4
    1516:	f5 1d       	adc	r31, r5
    1518:	a2 81       	ldd	r26, Z+2	; 0x02
    151a:	b3 81       	ldd	r27, Z+3	; 0x03
    151c:	11 96       	adiw	r26, 0x01	; 1
    151e:	6d 91       	ld	r22, X+
    1520:	7c 91       	ld	r23, X
    1522:	12 97       	sbiw	r26, 0x02	; 2
    1524:	84 81       	ldd	r24, Z+4	; 0x04
    1526:	95 81       	ldd	r25, Z+5	; 0x05
    1528:	68 1b       	sub	r22, r24
    152a:	79 0b       	sbc	r23, r25
    152c:	90 e0       	ldi	r25, 0x00	; 0
    152e:	77 ff       	sbrs	r23, 7
    1530:	02 c0       	rjmp	.+4      	; 0x1536 <qtm_scroller_process+0x334>
    1532:	60 e0       	ldi	r22, 0x00	; 0
    1534:	70 e0       	ldi	r23, 0x00	; 0
    1536:	a1 e0       	ldi	r26, 0x01	; 1
    1538:	ca 1a       	sub	r12, r26
    153a:	d1 08       	sbc	r13, r1
    153c:	2c 15       	cp	r18, r12
    153e:	3d 05       	cpc	r19, r13
    1540:	81 f4       	brne	.+32     	; 0x1562 <qtm_scroller_process+0x360>
    1542:	b9 81       	ldd	r27, Y+1	; 0x01
    1544:	b1 30       	cpi	r27, 0x01	; 1
    1546:	29 f5       	brne	.+74     	; 0x1592 <qtm_scroller_process+0x390>
    1548:	d5 01       	movw	r26, r10
    154a:	12 96       	adiw	r26, 0x02	; 2
    154c:	ed 91       	ld	r30, X+
    154e:	fc 91       	ld	r31, X
    1550:	13 97       	sbiw	r26, 0x03	; 3
    1552:	c1 80       	ldd	r12, Z+1	; 0x01
    1554:	d2 80       	ldd	r13, Z+2	; 0x02
    1556:	14 96       	adiw	r26, 0x04	; 4
    1558:	0d 90       	ld	r0, X+
    155a:	bc 91       	ld	r27, X
    155c:	a0 2d       	mov	r26, r0
    155e:	f6 01       	movw	r30, r12
    1560:	14 c0       	rjmp	.+40     	; 0x158a <qtm_scroller_process+0x388>
    1562:	f9 01       	movw	r30, r18
    1564:	31 96       	adiw	r30, 0x01	; 1
    1566:	8e 9e       	mul	r8, r30
    1568:	d0 01       	movw	r26, r0
    156a:	8f 9e       	mul	r8, r31
    156c:	b0 0d       	add	r27, r0
    156e:	11 24       	eor	r1, r1
    1570:	a4 0d       	add	r26, r4
    1572:	b5 1d       	adc	r27, r5
    1574:	12 96       	adiw	r26, 0x02	; 2
    1576:	ed 91       	ld	r30, X+
    1578:	fc 91       	ld	r31, X
    157a:	13 97       	sbiw	r26, 0x03	; 3
    157c:	01 80       	ldd	r0, Z+1	; 0x01
    157e:	f2 81       	ldd	r31, Z+2	; 0x02
    1580:	e0 2d       	mov	r30, r0
    1582:	14 96       	adiw	r26, 0x04	; 4
    1584:	0d 90       	ld	r0, X+
    1586:	bc 91       	ld	r27, X
    1588:	a0 2d       	mov	r26, r0
    158a:	ea 1b       	sub	r30, r26
    158c:	fb 0b       	sbc	r31, r27
    158e:	f7 ff       	sbrs	r31, 7
    1590:	02 c0       	rjmp	.+4      	; 0x1596 <qtm_scroller_process+0x394>
    1592:	e0 e0       	ldi	r30, 0x00	; 0
    1594:	f0 e0       	ldi	r31, 0x00	; 0
    1596:	bb 81       	ldd	r27, Y+3	; 0x03
    1598:	b0 31       	cpi	r27, 0x10	; 16
    159a:	28 f0       	brcs	.+10     	; 0x15a6 <qtm_scroller_process+0x3a4>
    159c:	b4 e0       	ldi	r27, 0x04	; 4
    159e:	ab 2e       	mov	r10, r27
    15a0:	88 e0       	ldi	r24, 0x08	; 8
    15a2:	b8 2e       	mov	r11, r24
    15a4:	03 c0       	rjmp	.+6      	; 0x15ac <qtm_scroller_process+0x3aa>
    15a6:	a1 2c       	mov	r10, r1
    15a8:	ac e0       	ldi	r26, 0x0C	; 12
    15aa:	ba 2e       	mov	r11, r26
    15ac:	91 30       	cpi	r25, 0x01	; 1
    15ae:	11 f4       	brne	.+4      	; 0x15b4 <qtm_scroller_process+0x3b2>
    15b0:	67 01       	movw	r12, r14
    15b2:	03 c0       	rjmp	.+6      	; 0x15ba <qtm_scroller_process+0x3b8>
    15b4:	24 1b       	sub	r18, r20
    15b6:	35 0b       	sbc	r19, r21
    15b8:	69 01       	movw	r12, r18
    15ba:	0b 2c       	mov	r0, r11
    15bc:	02 c0       	rjmp	.+4      	; 0x15c2 <qtm_scroller_process+0x3c0>
    15be:	cc 0c       	add	r12, r12
    15c0:	dd 1c       	adc	r13, r13
    15c2:	0a 94       	dec	r0
    15c4:	e2 f7       	brpl	.-8      	; 0x15be <qtm_scroller_process+0x3bc>
    15c6:	6e 17       	cp	r22, r30
    15c8:	7f 07       	cpc	r23, r31
    15ca:	a8 f0       	brcs	.+42     	; 0x15f6 <qtm_scroller_process+0x3f4>
    15cc:	c1 01       	movw	r24, r2
    15ce:	8e 1b       	sub	r24, r30
    15d0:	9f 0b       	sbc	r25, r31
    15d2:	9c 01       	movw	r18, r24
    15d4:	2e 1b       	sub	r18, r30
    15d6:	3f 0b       	sbc	r19, r31
    15d8:	62 0f       	add	r22, r18
    15da:	73 1f       	adc	r23, r19
    15dc:	4b 2d       	mov	r20, r11
    15de:	0e 94 99 08 	call	0x1132	; 0x1132 <divide>
    15e2:	21 e0       	ldi	r18, 0x01	; 1
    15e4:	30 e0       	ldi	r19, 0x00	; 0
    15e6:	02 c0       	rjmp	.+4      	; 0x15ec <qtm_scroller_process+0x3ea>
    15e8:	22 0f       	add	r18, r18
    15ea:	33 1f       	adc	r19, r19
    15ec:	ba 94       	dec	r11
    15ee:	e2 f7       	brpl	.-8      	; 0x15e8 <qtm_scroller_process+0x3e6>
    15f0:	82 1b       	sub	r24, r18
    15f2:	93 0b       	sbc	r25, r19
    15f4:	0c c0       	rjmp	.+24     	; 0x160e <qtm_scroller_process+0x40c>
    15f6:	cf 01       	movw	r24, r30
    15f8:	86 1b       	sub	r24, r22
    15fa:	97 0b       	sbc	r25, r23
    15fc:	f1 01       	movw	r30, r2
    15fe:	e6 1b       	sub	r30, r22
    1600:	f7 0b       	sbc	r31, r23
    1602:	bf 01       	movw	r22, r30
    1604:	68 0f       	add	r22, r24
    1606:	79 1f       	adc	r23, r25
    1608:	4b 2d       	mov	r20, r11
    160a:	0e 94 99 08 	call	0x1132	; 0x1132 <divide>
    160e:	8c 0d       	add	r24, r12
    1610:	9d 1d       	adc	r25, r13
    1612:	fb 81       	ldd	r31, Y+3	; 0x03
    1614:	f3 30       	cpi	r31, 0x03	; 3
    1616:	60 f0       	brcs	.+24     	; 0x1630 <qtm_scroller_process+0x42e>
    1618:	29 81       	ldd	r18, Y+1	; 0x01
    161a:	21 30       	cpi	r18, 0x01	; 1
    161c:	19 f4       	brne	.+6      	; 0x1624 <qtm_scroller_process+0x422>
    161e:	4a 2d       	mov	r20, r10
    1620:	b7 01       	movw	r22, r14
    1622:	04 c0       	rjmp	.+8      	; 0x162c <qtm_scroller_process+0x42a>
    1624:	b7 01       	movw	r22, r14
    1626:	61 50       	subi	r22, 0x01	; 1
    1628:	71 09       	sbc	r23, r1
    162a:	4a 2d       	mov	r20, r10
    162c:	0e 94 99 08 	call	0x1132	; 0x1132 <divide>
    1630:	81 30       	cpi	r24, 0x01	; 1
    1632:	30 e1       	ldi	r19, 0x10	; 16
    1634:	93 07       	cpc	r25, r19
    1636:	10 f0       	brcs	.+4      	; 0x163c <qtm_scroller_process+0x43a>
    1638:	80 e0       	ldi	r24, 0x00	; 0
    163a:	90 e1       	ldi	r25, 0x10	; 16
    163c:	e9 80       	ldd	r14, Y+1	; 0x01
    163e:	e1 10       	cpse	r14, r1
    1640:	17 c0       	rjmp	.+46     	; 0x1670 <qtm_scroller_process+0x46e>
    1642:	1f 70       	andi	r17, 0x0F	; 15
    1644:	a9 f0       	breq	.+42     	; 0x1670 <qtm_scroller_process+0x46e>
    1646:	28 e2       	ldi	r18, 0x28	; 40
    1648:	12 9f       	mul	r17, r18
    164a:	a0 01       	movw	r20, r0
    164c:	11 24       	eor	r1, r1
    164e:	84 17       	cp	r24, r20
    1650:	95 07       	cpc	r25, r21
    1652:	18 f0       	brcs	.+6      	; 0x165a <qtm_scroller_process+0x458>
    1654:	84 1b       	sub	r24, r20
    1656:	95 0b       	sbc	r25, r21
    1658:	02 c0       	rjmp	.+4      	; 0x165e <qtm_scroller_process+0x45c>
    165a:	80 e0       	ldi	r24, 0x00	; 0
    165c:	90 e0       	ldi	r25, 0x00	; 0
    165e:	44 0f       	add	r20, r20
    1660:	55 1f       	adc	r21, r21
    1662:	60 e0       	ldi	r22, 0x00	; 0
    1664:	70 e1       	ldi	r23, 0x10	; 16
    1666:	64 1b       	sub	r22, r20
    1668:	75 0b       	sbc	r23, r21
    166a:	4c e0       	ldi	r20, 0x0C	; 12
    166c:	0e 94 99 08 	call	0x1132	; 0x1132 <divide>
    1670:	2c e0       	ldi	r18, 0x0C	; 12
    1672:	30 e0       	ldi	r19, 0x00	; 0
    1674:	ec 84       	ldd	r14, Y+12	; 0x0c
    1676:	2e 19       	sub	r18, r14
    1678:	31 09       	sbc	r19, r1
    167a:	61 e0       	ldi	r22, 0x01	; 1
    167c:	70 e0       	ldi	r23, 0x00	; 0
    167e:	02 c0       	rjmp	.+4      	; 0x1684 <qtm_scroller_process+0x482>
    1680:	66 0f       	add	r22, r22
    1682:	77 1f       	adc	r23, r23
    1684:	ea 94       	dec	r14
    1686:	e2 f7       	brpl	.-8      	; 0x1680 <qtm_scroller_process+0x47e>
    1688:	fb 01       	movw	r30, r22
    168a:	31 97       	sbiw	r30, 0x01	; 1
    168c:	02 c0       	rjmp	.+4      	; 0x1692 <qtm_scroller_process+0x490>
    168e:	96 95       	lsr	r25
    1690:	87 95       	ror	r24
    1692:	2a 95       	dec	r18
    1694:	e2 f7       	brpl	.-8      	; 0x168e <qtm_scroller_process+0x48c>
    1696:	e8 17       	cp	r30, r24
    1698:	f9 07       	cpc	r31, r25
    169a:	08 f4       	brcc	.+2      	; 0x169e <qtm_scroller_process+0x49c>
    169c:	cf 01       	movw	r24, r30
    169e:	fd 84       	ldd	r15, Y+13	; 0x0d
    16a0:	ff 20       	and	r15, r15
    16a2:	d9 f1       	breq	.+118    	; 0x171a <qtm_scroller_process+0x518>
    16a4:	ae 85       	ldd	r26, Y+14	; 0x0e
    16a6:	bf 85       	ldd	r27, Y+15	; 0x0f
    16a8:	13 96       	adiw	r26, 0x03	; 3
    16aa:	4d 91       	ld	r20, X+
    16ac:	5c 91       	ld	r21, X
    16ae:	14 97       	sbiw	r26, 0x04	; 4
    16b0:	9c 01       	movw	r18, r24
    16b2:	24 1b       	sub	r18, r20
    16b4:	35 0b       	sbc	r19, r21
    16b6:	b9 81       	ldd	r27, Y+1	; 0x01
    16b8:	b1 30       	cpi	r27, 0x01	; 1
    16ba:	a9 f4       	brne	.+42     	; 0x16e6 <qtm_scroller_process+0x4e4>
    16bc:	db 01       	movw	r26, r22
    16be:	b6 95       	lsr	r27
    16c0:	a7 95       	ror	r26
    16c2:	37 ff       	sbrs	r19, 7
    16c4:	0a c0       	rjmp	.+20     	; 0x16da <qtm_scroller_process+0x4d8>
    16c6:	b1 95       	neg	r27
    16c8:	a1 95       	neg	r26
    16ca:	b1 09       	sbc	r27, r1
    16cc:	2a 17       	cp	r18, r26
    16ce:	3b 07       	cpc	r19, r27
    16d0:	0c f0       	brlt	.+2      	; 0x16d4 <qtm_scroller_process+0x4d2>
    16d2:	96 c0       	rjmp	.+300    	; 0x1800 <qtm_scroller_process+0x5fe>
    16d4:	26 0f       	add	r18, r22
    16d6:	37 1f       	adc	r19, r23
    16d8:	06 c0       	rjmp	.+12     	; 0x16e6 <qtm_scroller_process+0x4e4>
    16da:	a2 17       	cp	r26, r18
    16dc:	b3 07       	cpc	r27, r19
    16de:	0c f0       	brlt	.+2      	; 0x16e2 <qtm_scroller_process+0x4e0>
    16e0:	95 c0       	rjmp	.+298    	; 0x180c <qtm_scroller_process+0x60a>
    16e2:	26 1b       	sub	r18, r22
    16e4:	37 0b       	sbc	r19, r23
    16e6:	21 30       	cpi	r18, 0x01	; 1
    16e8:	31 05       	cpc	r19, r1
    16ea:	c1 f0       	breq	.+48     	; 0x171c <qtm_scroller_process+0x51a>
    16ec:	2f 3f       	cpi	r18, 0xFF	; 255
    16ee:	6f ef       	ldi	r22, 0xFF	; 255
    16f0:	36 07       	cpc	r19, r22
    16f2:	a1 f0       	breq	.+40     	; 0x171c <qtm_scroller_process+0x51a>
    16f4:	37 ff       	sbrs	r19, 7
    16f6:	09 c0       	rjmp	.+18     	; 0x170a <qtm_scroller_process+0x508>
    16f8:	31 95       	neg	r19
    16fa:	21 95       	neg	r18
    16fc:	31 09       	sbc	r19, r1
    16fe:	36 95       	lsr	r19
    1700:	27 95       	ror	r18
    1702:	31 95       	neg	r19
    1704:	21 95       	neg	r18
    1706:	31 09       	sbc	r19, r1
    1708:	02 c0       	rjmp	.+4      	; 0x170e <qtm_scroller_process+0x50c>
    170a:	36 95       	lsr	r19
    170c:	27 95       	ror	r18
    170e:	24 0f       	add	r18, r20
    1710:	35 1f       	adc	r19, r21
    1712:	af 01       	movw	r20, r30
    1714:	42 23       	and	r20, r18
    1716:	53 23       	and	r21, r19
    1718:	01 c0       	rjmp	.+2      	; 0x171c <qtm_scroller_process+0x51a>
    171a:	ac 01       	movw	r20, r24
    171c:	ae 85       	ldd	r26, Y+14	; 0x0e
    171e:	bf 85       	ldd	r27, Y+15	; 0x0f
    1720:	13 96       	adiw	r26, 0x03	; 3
    1722:	8d 93       	st	X+, r24
    1724:	9c 93       	st	X, r25
    1726:	14 97       	sbiw	r26, 0x04	; 4
    1728:	f3 01       	movw	r30, r6
    172a:	a5 81       	ldd	r26, Z+5	; 0x05
    172c:	ee 85       	ldd	r30, Y+14	; 0x0e
    172e:	ff 85       	ldd	r31, Y+15	; 0x0f
    1730:	65 81       	ldd	r22, Z+5	; 0x05
    1732:	76 81       	ldd	r23, Z+6	; 0x06
    1734:	f3 01       	movw	r30, r6
    1736:	24 81       	ldd	r18, Z+4	; 0x04
    1738:	ca 01       	movw	r24, r20
    173a:	86 1b       	sub	r24, r22
    173c:	97 0b       	sbc	r25, r23
    173e:	30 81       	ld	r19, Z
    1740:	31 30       	cpi	r19, 0x01	; 1
    1742:	e1 f4       	brne	.+56     	; 0x177c <qtm_scroller_process+0x57a>
    1744:	22 95       	swap	r18
    1746:	2f 70       	andi	r18, 0x0F	; 15
    1748:	e1 e0       	ldi	r30, 0x01	; 1
    174a:	f0 e0       	ldi	r31, 0x00	; 0
    174c:	02 c0       	rjmp	.+4      	; 0x1752 <qtm_scroller_process+0x550>
    174e:	ee 0f       	add	r30, r30
    1750:	ff 1f       	adc	r31, r31
    1752:	2a 95       	dec	r18
    1754:	e2 f7       	brpl	.-8      	; 0x174e <qtm_scroller_process+0x54c>
    1756:	9f 01       	movw	r18, r30
    1758:	36 95       	lsr	r19
    175a:	27 95       	ror	r18
    175c:	97 ff       	sbrs	r25, 7
    175e:	09 c0       	rjmp	.+18     	; 0x1772 <qtm_scroller_process+0x570>
    1760:	31 95       	neg	r19
    1762:	21 95       	neg	r18
    1764:	31 09       	sbc	r19, r1
    1766:	82 17       	cp	r24, r18
    1768:	93 07       	cpc	r25, r19
    176a:	54 f4       	brge	.+20     	; 0x1780 <qtm_scroller_process+0x57e>
    176c:	8e 0f       	add	r24, r30
    176e:	9f 1f       	adc	r25, r31
    1770:	05 c0       	rjmp	.+10     	; 0x177c <qtm_scroller_process+0x57a>
    1772:	28 17       	cp	r18, r24
    1774:	39 07       	cpc	r19, r25
    1776:	ac f4       	brge	.+42     	; 0x17a2 <qtm_scroller_process+0x5a0>
    1778:	8e 1b       	sub	r24, r30
    177a:	9f 0b       	sbc	r25, r31
    177c:	97 ff       	sbrs	r25, 7
    177e:	11 c0       	rjmp	.+34     	; 0x17a2 <qtm_scroller_process+0x5a0>
    1780:	91 95       	neg	r25
    1782:	81 95       	neg	r24
    1784:	91 09       	sbc	r25, r1
    1786:	ee 85       	ldd	r30, Y+14	; 0x0e
    1788:	ff 85       	ldd	r31, Y+15	; 0x0f
    178a:	22 81       	ldd	r18, Z+2	; 0x02
    178c:	30 e0       	ldi	r19, 0x00	; 0
    178e:	28 17       	cp	r18, r24
    1790:	39 07       	cpc	r19, r25
    1792:	14 f0       	brlt	.+4      	; 0x1798 <qtm_scroller_process+0x596>
    1794:	80 e0       	ldi	r24, 0x00	; 0
    1796:	1a c0       	rjmp	.+52     	; 0x17cc <qtm_scroller_process+0x5ca>
    1798:	ee 85       	ldd	r30, Y+14	; 0x0e
    179a:	ff 85       	ldd	r31, Y+15	; 0x0f
    179c:	a1 83       	std	Z+1, r26	; 0x01
    179e:	12 82       	std	Z+2, r1	; 0x02
    17a0:	0b c0       	rjmp	.+22     	; 0x17b8 <qtm_scroller_process+0x5b6>
    17a2:	ee 85       	ldd	r30, Y+14	; 0x0e
    17a4:	ff 85       	ldd	r31, Y+15	; 0x0f
    17a6:	21 81       	ldd	r18, Z+1	; 0x01
    17a8:	30 e0       	ldi	r19, 0x00	; 0
    17aa:	28 17       	cp	r18, r24
    17ac:	39 07       	cpc	r19, r25
    17ae:	94 f7       	brge	.-28     	; 0x1794 <qtm_scroller_process+0x592>
    17b0:	ee 85       	ldd	r30, Y+14	; 0x0e
    17b2:	ff 85       	ldd	r31, Y+15	; 0x0f
    17b4:	11 82       	std	Z+1, r1	; 0x01
    17b6:	a2 83       	std	Z+2, r26	; 0x02
    17b8:	46 17       	cp	r20, r22
    17ba:	57 07       	cpc	r21, r23
    17bc:	59 f3       	breq	.-42     	; 0x1794 <qtm_scroller_process+0x592>
    17be:	ae 85       	ldd	r26, Y+14	; 0x0e
    17c0:	bf 85       	ldd	r27, Y+15	; 0x0f
    17c2:	15 96       	adiw	r26, 0x05	; 5
    17c4:	4d 93       	st	X+, r20
    17c6:	5c 93       	st	X, r21
    17c8:	16 97       	sbiw	r26, 0x06	; 6
    17ca:	82 e0       	ldi	r24, 0x02	; 2
    17cc:	81 68       	ori	r24, 0x81	; 129
    17ce:	02 c0       	rjmp	.+4      	; 0x17d4 <qtm_scroller_process+0x5d2>
    17d0:	02 e0       	ldi	r16, 0x02	; 2
    17d2:	80 e0       	ldi	r24, 0x00	; 0
    17d4:	ee 85       	ldd	r30, Y+14	; 0x0e
    17d6:	ff 85       	ldd	r31, Y+15	; 0x0f
    17d8:	80 83       	st	Z, r24
    17da:	81 78       	andi	r24, 0x81	; 129
    17dc:	ea 80       	ldd	r14, Y+2	; 0x02
    17de:	e8 2a       	or	r14, r24
    17e0:	ea 82       	std	Y+2, r14	; 0x02
    17e2:	93 94       	inc	r9
    17e4:	46 cd       	rjmp	.-1396   	; 0x1272 <qtm_scroller_process+0x70>
    17e6:	ed 91       	ld	r30, X+
    17e8:	fc 91       	ld	r31, X
    17ea:	ea 80       	ldd	r14, Y+2	; 0x02
    17ec:	e0 82       	st	Z, r14
    17ee:	13 c0       	rjmp	.+38     	; 0x1816 <qtm_scroller_process+0x614>
    17f0:	0b e0       	ldi	r16, 0x0B	; 11
    17f2:	11 c0       	rjmp	.+34     	; 0x1816 <qtm_scroller_process+0x614>
    17f4:	60 e0       	ldi	r22, 0x00	; 0
    17f6:	70 e0       	ldi	r23, 0x00	; 0
    17f8:	90 e0       	ldi	r25, 0x00	; 0
    17fa:	9d ce       	rjmp	.-710    	; 0x1536 <qtm_scroller_process+0x334>
    17fc:	91 e0       	ldi	r25, 0x01	; 1
    17fe:	9b ce       	rjmp	.-714    	; 0x1536 <qtm_scroller_process+0x334>
    1800:	2f 3f       	cpi	r18, 0xFF	; 255
    1802:	6f ef       	ldi	r22, 0xFF	; 255
    1804:	36 07       	cpc	r19, r22
    1806:	09 f0       	breq	.+2      	; 0x180a <qtm_scroller_process+0x608>
    1808:	77 cf       	rjmp	.-274    	; 0x16f8 <qtm_scroller_process+0x4f6>
    180a:	88 cf       	rjmp	.-240    	; 0x171c <qtm_scroller_process+0x51a>
    180c:	21 30       	cpi	r18, 0x01	; 1
    180e:	31 05       	cpc	r19, r1
    1810:	09 f0       	breq	.+2      	; 0x1814 <qtm_scroller_process+0x612>
    1812:	70 cf       	rjmp	.-288    	; 0x16f4 <qtm_scroller_process+0x4f2>
    1814:	83 cf       	rjmp	.-250    	; 0x171c <qtm_scroller_process+0x51a>
    1816:	80 2f       	mov	r24, r16
    1818:	61 96       	adiw	r28, 0x11	; 17
    181a:	cd bf       	out	0x3d, r28	; 61
    181c:	de bf       	out	0x3e, r29	; 62
    181e:	df 91       	pop	r29
    1820:	cf 91       	pop	r28
    1822:	1f 91       	pop	r17
    1824:	0f 91       	pop	r16
    1826:	ff 90       	pop	r15
    1828:	ef 90       	pop	r14
    182a:	df 90       	pop	r13
    182c:	cf 90       	pop	r12
    182e:	bf 90       	pop	r11
    1830:	af 90       	pop	r10
    1832:	9f 90       	pop	r9
    1834:	8f 90       	pop	r8
    1836:	7f 90       	pop	r7
    1838:	6f 90       	pop	r6
    183a:	5f 90       	pop	r5
    183c:	4f 90       	pop	r4
    183e:	3f 90       	pop	r3
    1840:	2f 90       	pop	r2
    1842:	08 95       	ret

00001844 <charge_share_test>:
    1844:	a0 91 1e 41 	lds	r26, 0x411E	; 0x80411e <qtm_acquisition_control_working_set_ptr>
    1848:	b0 91 1f 41 	lds	r27, 0x411F	; 0x80411f <qtm_acquisition_control_working_set_ptr+0x1>
    184c:	25 e0       	ldi	r18, 0x05	; 5
    184e:	ac 01       	movw	r20, r24
    1850:	24 9f       	mul	r18, r20
    1852:	c0 01       	movw	r24, r0
    1854:	25 9f       	mul	r18, r21
    1856:	90 0d       	add	r25, r0
    1858:	11 24       	eor	r1, r1
    185a:	14 96       	adiw	r26, 0x04	; 4
    185c:	ed 91       	ld	r30, X+
    185e:	fc 91       	ld	r31, X
    1860:	15 97       	sbiw	r26, 0x05	; 5
    1862:	e8 0f       	add	r30, r24
    1864:	f9 1f       	adc	r31, r25
    1866:	81 81       	ldd	r24, Z+1	; 0x01
    1868:	92 81       	ldd	r25, Z+2	; 0x02
    186a:	86 17       	cp	r24, r22
    186c:	97 07       	cpc	r25, r23
    186e:	81 f1       	breq	.+96     	; 0x18d0 <charge_share_test+0x8c>
    1870:	86 17       	cp	r24, r22
    1872:	97 07       	cpc	r25, r23
    1874:	18 f4       	brcc	.+6      	; 0x187c <charge_share_test+0x38>
    1876:	68 1b       	sub	r22, r24
    1878:	79 0b       	sbc	r23, r25
    187a:	04 c0       	rjmp	.+8      	; 0x1884 <charge_share_test+0x40>
    187c:	9c 01       	movw	r18, r24
    187e:	26 1b       	sub	r18, r22
    1880:	37 0b       	sbc	r19, r23
    1882:	b9 01       	movw	r22, r18
    1884:	ed 91       	ld	r30, X+
    1886:	fc 91       	ld	r31, X
    1888:	82 81       	ldd	r24, Z+2	; 0x02
    188a:	80 34       	cpi	r24, 0x40	; 64
    188c:	11 f4       	brne	.+4      	; 0x1892 <charge_share_test+0x4e>
    188e:	76 95       	lsr	r23
    1890:	67 95       	ror	r22
    1892:	65 38       	cpi	r22, 0x85	; 133
    1894:	71 05       	cpc	r23, r1
    1896:	d0 f4       	brcc	.+52     	; 0x18cc <charge_share_test+0x88>
    1898:	66 30       	cpi	r22, 0x06	; 6
    189a:	71 05       	cpc	r23, r1
    189c:	c8 f0       	brcs	.+50     	; 0x18d0 <charge_share_test+0x8c>
    189e:	e3 81       	ldd	r30, Z+3	; 0x03
    18a0:	e0 73       	andi	r30, 0x30	; 48
    18a2:	f0 e0       	ldi	r31, 0x00	; 0
    18a4:	83 e0       	ldi	r24, 0x03	; 3
    18a6:	f6 95       	lsr	r31
    18a8:	e7 95       	ror	r30
    18aa:	8a 95       	dec	r24
    18ac:	e1 f7       	brne	.-8      	; 0x18a6 <charge_share_test+0x62>
    18ae:	e7 57       	subi	r30, 0x77	; 119
    18b0:	ff 4b       	sbci	r31, 0xBF	; 191
    18b2:	80 81       	ld	r24, Z
    18b4:	91 81       	ldd	r25, Z+1	; 0x01
    18b6:	68 9f       	mul	r22, r24
    18b8:	90 01       	movw	r18, r0
    18ba:	69 9f       	mul	r22, r25
    18bc:	30 0d       	add	r19, r0
    18be:	78 9f       	mul	r23, r24
    18c0:	30 0d       	add	r19, r0
    18c2:	11 24       	eor	r1, r1
    18c4:	81 e0       	ldi	r24, 0x01	; 1
    18c6:	23 2b       	or	r18, r19
    18c8:	21 f4       	brne	.+8      	; 0x18d2 <charge_share_test+0x8e>
    18ca:	02 c0       	rjmp	.+4      	; 0x18d0 <charge_share_test+0x8c>
    18cc:	81 e0       	ldi	r24, 0x01	; 1
    18ce:	08 95       	ret
    18d0:	80 e0       	ldi	r24, 0x00	; 0
    18d2:	08 95       	ret

000018d4 <select_next_channel_to_measure>:
    18d4:	80 91 e5 40 	lds	r24, 0x40E5	; 0x8040e5 <current_measure_channel>
    18d8:	90 91 e6 40 	lds	r25, 0x40E6	; 0x8040e6 <current_measure_channel+0x1>
    18dc:	a0 91 1e 41 	lds	r26, 0x411E	; 0x80411e <qtm_acquisition_control_working_set_ptr>
    18e0:	b0 91 1f 41 	lds	r27, 0x411F	; 0x80411f <qtm_acquisition_control_working_set_ptr+0x1>
    18e4:	ed 91       	ld	r30, X+
    18e6:	fc 91       	ld	r31, X
    18e8:	11 97       	sbiw	r26, 0x01	; 1
    18ea:	40 81       	ld	r20, Z
    18ec:	51 81       	ldd	r21, Z+1	; 0x01
    18ee:	25 e0       	ldi	r18, 0x05	; 5
    18f0:	28 9f       	mul	r18, r24
    18f2:	b0 01       	movw	r22, r0
    18f4:	29 9f       	mul	r18, r25
    18f6:	70 0d       	add	r23, r0
    18f8:	11 24       	eor	r1, r1
    18fa:	20 e0       	ldi	r18, 0x00	; 0
    18fc:	30 e0       	ldi	r19, 0x00	; 0
    18fe:	84 17       	cp	r24, r20
    1900:	95 07       	cpc	r25, r21
    1902:	a8 f4       	brcc	.+42     	; 0x192e <select_next_channel_to_measure+0x5a>
    1904:	14 96       	adiw	r26, 0x04	; 4
    1906:	ed 91       	ld	r30, X+
    1908:	fc 91       	ld	r31, X
    190a:	15 97       	sbiw	r26, 0x05	; 5
    190c:	e2 0f       	add	r30, r18
    190e:	f3 1f       	adc	r31, r19
    1910:	e6 0f       	add	r30, r22
    1912:	f7 1f       	adc	r31, r23
    1914:	e0 81       	ld	r30, Z
    1916:	2b 5f       	subi	r18, 0xFB	; 251
    1918:	3f 4f       	sbci	r19, 0xFF	; 255
    191a:	e0 fd       	sbrc	r30, 0
    191c:	02 c0       	rjmp	.+4      	; 0x1922 <select_next_channel_to_measure+0x4e>
    191e:	01 96       	adiw	r24, 0x01	; 1
    1920:	ee cf       	rjmp	.-36     	; 0x18fe <select_next_channel_to_measure+0x2a>
    1922:	80 93 e5 40 	sts	0x40E5, r24	; 0x8040e5 <current_measure_channel>
    1926:	90 93 e6 40 	sts	0x40E6, r25	; 0x8040e6 <current_measure_channel+0x1>
    192a:	80 e0       	ldi	r24, 0x00	; 0
    192c:	08 95       	ret
    192e:	10 92 e5 40 	sts	0x40E5, r1	; 0x8040e5 <current_measure_channel>
    1932:	10 92 e6 40 	sts	0x40E6, r1	; 0x8040e6 <current_measure_channel+0x1>
    1936:	81 e0       	ldi	r24, 0x01	; 1
    1938:	08 95       	ret

0000193a <qtm_measure_node>:
    193a:	af 92       	push	r10
    193c:	bf 92       	push	r11
    193e:	cf 92       	push	r12
    1940:	df 92       	push	r13
    1942:	ef 92       	push	r14
    1944:	ff 92       	push	r15
    1946:	0f 93       	push	r16
    1948:	1f 93       	push	r17
    194a:	cf 93       	push	r28
    194c:	df 93       	push	r29
    194e:	7c 01       	movw	r14, r24
    1950:	e0 91 1e 41 	lds	r30, 0x411E	; 0x80411e <qtm_acquisition_control_working_set_ptr>
    1954:	f0 91 1f 41 	lds	r31, 0x411F	; 0x80411f <qtm_acquisition_control_working_set_ptr+0x1>
    1958:	84 e1       	ldi	r24, 0x14	; 20
    195a:	8e 9d       	mul	r24, r14
    195c:	e0 01       	movw	r28, r0
    195e:	8f 9d       	mul	r24, r15
    1960:	d0 0d       	add	r29, r0
    1962:	11 24       	eor	r1, r1
    1964:	a2 81       	ldd	r26, Z+2	; 0x02
    1966:	b3 81       	ldd	r27, Z+3	; 0x03
    1968:	ac 0f       	add	r26, r28
    196a:	bd 1f       	adc	r27, r29
    196c:	18 96       	adiw	r26, 0x08	; 8
    196e:	2c 91       	ld	r18, X
    1970:	18 97       	sbiw	r26, 0x08	; 8
    1972:	19 96       	adiw	r26, 0x09	; 9
    1974:	3c 91       	ld	r19, X
    1976:	19 97       	sbiw	r26, 0x09	; 9
    1978:	1a 96       	adiw	r26, 0x0a	; 10
    197a:	4c 91       	ld	r20, X
    197c:	1a 97       	sbiw	r26, 0x0a	; 10
    197e:	1b 96       	adiw	r26, 0x0b	; 11
    1980:	5c 91       	ld	r21, X
    1982:	1b 97       	sbiw	r26, 0x0b	; 11
    1984:	1c 96       	adiw	r26, 0x0c	; 12
    1986:	6c 91       	ld	r22, X
    1988:	1c 97       	sbiw	r26, 0x0c	; 12
    198a:	1d 96       	adiw	r26, 0x0d	; 13
    198c:	7c 91       	ld	r23, X
    198e:	1d 97       	sbiw	r26, 0x0d	; 13
    1990:	1e 96       	adiw	r26, 0x0e	; 14
    1992:	8c 91       	ld	r24, X
    1994:	1e 97       	sbiw	r26, 0x0e	; 14
    1996:	1f 96       	adiw	r26, 0x0f	; 15
    1998:	9c 91       	ld	r25, X
    199a:	20 93 f0 07 	sts	0x07F0, r18	; 0x8007f0 <__TEXT_REGION_LENGTH__+0x7e07f0>
    199e:	08 e0       	ldi	r16, 0x08	; 8
    19a0:	0e 94 8e 13 	call	0x271c	; 0x271c <__lshrdi3>
    19a4:	20 93 f1 07 	sts	0x07F1, r18	; 0x8007f1 <__TEXT_REGION_LENGTH__+0x7e07f1>
    19a8:	0e 94 8e 13 	call	0x271c	; 0x271c <__lshrdi3>
    19ac:	20 93 f2 07 	sts	0x07F2, r18	; 0x8007f2 <__TEXT_REGION_LENGTH__+0x7e07f2>
    19b0:	0e 94 8e 13 	call	0x271c	; 0x271c <__lshrdi3>
    19b4:	20 93 f3 07 	sts	0x07F3, r18	; 0x8007f3 <__TEXT_REGION_LENGTH__+0x7e07f3>
    19b8:	0e 94 8e 13 	call	0x271c	; 0x271c <__lshrdi3>
    19bc:	20 93 f4 07 	sts	0x07F4, r18	; 0x8007f4 <__TEXT_REGION_LENGTH__+0x7e07f4>
    19c0:	0e 94 8e 13 	call	0x271c	; 0x271c <__lshrdi3>
    19c4:	20 93 f5 07 	sts	0x07F5, r18	; 0x8007f5 <__TEXT_REGION_LENGTH__+0x7e07f5>
    19c8:	10 92 e0 07 	sts	0x07E0, r1	; 0x8007e0 <__TEXT_REGION_LENGTH__+0x7e07e0>
    19cc:	a0 81       	ld	r26, Z
    19ce:	b1 81       	ldd	r27, Z+1	; 0x01
    19d0:	12 96       	adiw	r26, 0x02	; 2
    19d2:	8c 91       	ld	r24, X
    19d4:	80 38       	cpi	r24, 0x80	; 128
    19d6:	09 f4       	brne	.+2      	; 0x19da <qtm_measure_node+0xa0>
    19d8:	4f c0       	rjmp	.+158    	; 0x1a78 <qtm_measure_node+0x13e>
    19da:	a2 81       	ldd	r26, Z+2	; 0x02
    19dc:	b3 81       	ldd	r27, Z+3	; 0x03
    19de:	ac 0f       	add	r26, r28
    19e0:	bd 1f       	adc	r27, r29
    19e2:	cc 90       	ld	r12, X
    19e4:	11 96       	adiw	r26, 0x01	; 1
    19e6:	3c 91       	ld	r19, X
    19e8:	11 97       	sbiw	r26, 0x01	; 1
    19ea:	12 96       	adiw	r26, 0x02	; 2
    19ec:	4c 91       	ld	r20, X
    19ee:	12 97       	sbiw	r26, 0x02	; 2
    19f0:	13 96       	adiw	r26, 0x03	; 3
    19f2:	5c 91       	ld	r21, X
    19f4:	13 97       	sbiw	r26, 0x03	; 3
    19f6:	14 96       	adiw	r26, 0x04	; 4
    19f8:	6c 91       	ld	r22, X
    19fa:	14 97       	sbiw	r26, 0x04	; 4
    19fc:	15 96       	adiw	r26, 0x05	; 5
    19fe:	7c 91       	ld	r23, X
    1a00:	15 97       	sbiw	r26, 0x05	; 5
    1a02:	16 96       	adiw	r26, 0x06	; 6
    1a04:	8c 91       	ld	r24, X
    1a06:	16 97       	sbiw	r26, 0x06	; 6
    1a08:	17 96       	adiw	r26, 0x07	; 7
    1a0a:	9c 91       	ld	r25, X
    1a0c:	c0 92 e8 07 	sts	0x07E8, r12	; 0x8007e8 <__TEXT_REGION_LENGTH__+0x7e07e8>
    1a10:	2c 2d       	mov	r18, r12
    1a12:	0e 94 8e 13 	call	0x271c	; 0x271c <__lshrdi3>
    1a16:	d2 2e       	mov	r13, r18
    1a18:	20 93 e9 07 	sts	0x07E9, r18	; 0x8007e9 <__TEXT_REGION_LENGTH__+0x7e07e9>
    1a1c:	0e 94 8e 13 	call	0x271c	; 0x271c <__lshrdi3>
    1a20:	12 2f       	mov	r17, r18
    1a22:	20 93 ea 07 	sts	0x07EA, r18	; 0x8007ea <__TEXT_REGION_LENGTH__+0x7e07ea>
    1a26:	0e 94 8e 13 	call	0x271c	; 0x271c <__lshrdi3>
    1a2a:	a2 2e       	mov	r10, r18
    1a2c:	20 93 eb 07 	sts	0x07EB, r18	; 0x8007eb <__TEXT_REGION_LENGTH__+0x7e07eb>
    1a30:	0e 94 8e 13 	call	0x271c	; 0x271c <__lshrdi3>
    1a34:	b2 2e       	mov	r11, r18
    1a36:	20 93 ec 07 	sts	0x07EC, r18	; 0x8007ec <__TEXT_REGION_LENGTH__+0x7e07ec>
    1a3a:	0e 94 8e 13 	call	0x271c	; 0x271c <__lshrdi3>
    1a3e:	20 93 ed 07 	sts	0x07ED, r18	; 0x8007ed <__TEXT_REGION_LENGTH__+0x7e07ed>
    1a42:	80 81       	ld	r24, Z
    1a44:	91 81       	ldd	r25, Z+1	; 0x01
    1a46:	dc 01       	movw	r26, r24
    1a48:	12 96       	adiw	r26, 0x02	; 2
    1a4a:	8c 91       	ld	r24, X
    1a4c:	81 38       	cpi	r24, 0x81	; 129
    1a4e:	21 f4       	brne	.+8      	; 0x1a58 <qtm_measure_node+0x11e>
    1a50:	81 e0       	ldi	r24, 0x01	; 1
    1a52:	80 93 e0 07 	sts	0x07E0, r24	; 0x8007e0 <__TEXT_REGION_LENGTH__+0x7e07e0>
    1a56:	10 c0       	rjmp	.+32     	; 0x1a78 <qtm_measure_node+0x13e>
    1a58:	82 38       	cpi	r24, 0x82	; 130
    1a5a:	71 f4       	brne	.+28     	; 0x1a78 <qtm_measure_node+0x13e>
    1a5c:	10 92 e0 07 	sts	0x07E0, r1	; 0x8007e0 <__TEXT_REGION_LENGTH__+0x7e07e0>
    1a60:	c0 92 f8 07 	sts	0x07F8, r12	; 0x8007f8 <__TEXT_REGION_LENGTH__+0x7e07f8>
    1a64:	d0 92 f9 07 	sts	0x07F9, r13	; 0x8007f9 <__TEXT_REGION_LENGTH__+0x7e07f9>
    1a68:	10 93 fa 07 	sts	0x07FA, r17	; 0x8007fa <__TEXT_REGION_LENGTH__+0x7e07fa>
    1a6c:	a0 92 fb 07 	sts	0x07FB, r10	; 0x8007fb <__TEXT_REGION_LENGTH__+0x7e07fb>
    1a70:	b0 92 fc 07 	sts	0x07FC, r11	; 0x8007fc <__TEXT_REGION_LENGTH__+0x7e07fc>
    1a74:	20 93 fd 07 	sts	0x07FD, r18	; 0x8007fd <__TEXT_REGION_LENGTH__+0x7e07fd>
    1a78:	25 e0       	ldi	r18, 0x05	; 5
    1a7a:	2e 9d       	mul	r18, r14
    1a7c:	c0 01       	movw	r24, r0
    1a7e:	2f 9d       	mul	r18, r15
    1a80:	90 0d       	add	r25, r0
    1a82:	11 24       	eor	r1, r1
    1a84:	a4 81       	ldd	r26, Z+4	; 0x04
    1a86:	b5 81       	ldd	r27, Z+5	; 0x05
    1a88:	a8 0f       	add	r26, r24
    1a8a:	b9 1f       	adc	r27, r25
    1a8c:	13 96       	adiw	r26, 0x03	; 3
    1a8e:	2d 91       	ld	r18, X+
    1a90:	3c 91       	ld	r19, X
    1a92:	14 97       	sbiw	r26, 0x04	; 4
    1a94:	a9 01       	movw	r20, r18
    1a96:	53 70       	andi	r21, 0x03	; 3
    1a98:	40 93 e4 07 	sts	0x07E4, r20	; 0x8007e4 <__TEXT_REGION_LENGTH__+0x7e07e4>
    1a9c:	50 93 e5 07 	sts	0x07E5, r21	; 0x8007e5 <__TEXT_REGION_LENGTH__+0x7e07e5>
    1aa0:	37 fd       	sbrc	r19, 7
    1aa2:	03 c0       	rjmp	.+6      	; 0x1aaa <qtm_measure_node+0x170>
    1aa4:	10 92 ca 07 	sts	0x07CA, r1	; 0x8007ca <__TEXT_REGION_LENGTH__+0x7e07ca>
    1aa8:	03 c0       	rjmp	.+6      	; 0x1ab0 <qtm_measure_node+0x176>
    1aaa:	21 e0       	ldi	r18, 0x01	; 1
    1aac:	20 93 ca 07 	sts	0x07CA, r18	; 0x8007ca <__TEXT_REGION_LENGTH__+0x7e07ca>
    1ab0:	a4 81       	ldd	r26, Z+4	; 0x04
    1ab2:	b5 81       	ldd	r27, Z+5	; 0x05
    1ab4:	a8 0f       	add	r26, r24
    1ab6:	b9 1f       	adc	r27, r25
    1ab8:	2c 91       	ld	r18, X
    1aba:	21 ff       	sbrs	r18, 1
    1abc:	02 c0       	rjmp	.+4      	; 0x1ac2 <qtm_measure_node+0x188>
    1abe:	25 e0       	ldi	r18, 0x05	; 5
    1ac0:	2c 93       	st	X, r18
    1ac2:	24 81       	ldd	r18, Z+4	; 0x04
    1ac4:	35 81       	ldd	r19, Z+5	; 0x05
    1ac6:	d9 01       	movw	r26, r18
    1ac8:	a8 0f       	add	r26, r24
    1aca:	b9 1f       	adc	r27, r25
    1acc:	8c 91       	ld	r24, X
    1ace:	8c 71       	andi	r24, 0x1C	; 28
    1ad0:	69 f4       	brne	.+26     	; 0x1aec <qtm_measure_node+0x1b2>
    1ad2:	a2 81       	ldd	r26, Z+2	; 0x02
    1ad4:	b3 81       	ldd	r27, Z+3	; 0x03
    1ad6:	ac 0f       	add	r26, r28
    1ad8:	bd 1f       	adc	r27, r29
    1ada:	52 96       	adiw	r26, 0x12	; 18
    1adc:	ac 91       	ld	r26, X
    1ade:	a2 95       	swap	r26
    1ae0:	af 70       	andi	r26, 0x0F	; 15
    1ae2:	b0 e0       	ldi	r27, 0x00	; 0
    1ae4:	af 56       	subi	r26, 0x6F	; 111
    1ae6:	bf 4b       	sbci	r27, 0xBF	; 191
    1ae8:	8c 91       	ld	r24, X
    1aea:	01 c0       	rjmp	.+2      	; 0x1aee <qtm_measure_node+0x1b4>
    1aec:	8f e1       	ldi	r24, 0x1F	; 31
    1aee:	80 93 e6 07 	sts	0x07E6, r24	; 0x8007e6 <__TEXT_REGION_LENGTH__+0x7e07e6>
    1af2:	a2 81       	ldd	r26, Z+2	; 0x02
    1af4:	b3 81       	ldd	r27, Z+3	; 0x03
    1af6:	ac 0f       	add	r26, r28
    1af8:	bd 1f       	adc	r27, r29
    1afa:	50 96       	adiw	r26, 0x10	; 16
    1afc:	8c 91       	ld	r24, X
    1afe:	8b 37       	cpi	r24, 0x7B	; 123
    1b00:	10 f4       	brcc	.+4      	; 0x1b06 <qtm_measure_node+0x1cc>
    1b02:	8c 5f       	subi	r24, 0xFC	; 252
    1b04:	01 c0       	rjmp	.+2      	; 0x1b08 <qtm_measure_node+0x1ce>
    1b06:	8f e7       	ldi	r24, 0x7F	; 127
    1b08:	80 93 c4 07 	sts	0x07C4, r24	; 0x8007c4 <__TEXT_REGION_LENGTH__+0x7e07c4>
    1b0c:	a2 81       	ldd	r26, Z+2	; 0x02
    1b0e:	b3 81       	ldd	r27, Z+3	; 0x03
    1b10:	ac 0f       	add	r26, r28
    1b12:	bd 1f       	adc	r27, r29
    1b14:	53 96       	adiw	r26, 0x13	; 19
    1b16:	8c 91       	ld	r24, X
    1b18:	80 93 c7 07 	sts	0x07C7, r24	; 0x8007c7 <__TEXT_REGION_LENGTH__+0x7e07c7>
    1b1c:	a2 81       	ldd	r26, Z+2	; 0x02
    1b1e:	b3 81       	ldd	r27, Z+3	; 0x03
    1b20:	ac 0f       	add	r26, r28
    1b22:	bd 1f       	adc	r27, r29
    1b24:	51 96       	adiw	r26, 0x11	; 17
    1b26:	8c 91       	ld	r24, X
    1b28:	82 95       	swap	r24
    1b2a:	8f 70       	andi	r24, 0x0F	; 15
    1b2c:	80 93 c9 07 	sts	0x07C9, r24	; 0x8007c9 <__TEXT_REGION_LENGTH__+0x7e07c9>
    1b30:	82 81       	ldd	r24, Z+2	; 0x02
    1b32:	93 81       	ldd	r25, Z+3	; 0x03
    1b34:	c8 0f       	add	r28, r24
    1b36:	d9 1f       	adc	r29, r25
    1b38:	89 89       	ldd	r24, Y+17	; 0x11
    1b3a:	8f 70       	andi	r24, 0x0F	; 15
    1b3c:	80 68       	ori	r24, 0x80	; 128
    1b3e:	80 93 c2 07 	sts	0x07C2, r24	; 0x8007c2 <__TEXT_REGION_LENGTH__+0x7e07c2>
    1b42:	81 e8       	ldi	r24, 0x81	; 129
    1b44:	80 93 c0 07 	sts	0x07C0, r24	; 0x8007c0 <__TEXT_REGION_LENGTH__+0x7e07c0>
    1b48:	81 e0       	ldi	r24, 0x01	; 1
    1b4a:	80 93 d0 07 	sts	0x07D0, r24	; 0x8007d0 <__TEXT_REGION_LENGTH__+0x7e07d0>
    1b4e:	df 91       	pop	r29
    1b50:	cf 91       	pop	r28
    1b52:	1f 91       	pop	r17
    1b54:	0f 91       	pop	r16
    1b56:	ff 90       	pop	r15
    1b58:	ef 90       	pop	r14
    1b5a:	df 90       	pop	r13
    1b5c:	cf 90       	pop	r12
    1b5e:	bf 90       	pop	r11
    1b60:	af 90       	pop	r10
    1b62:	08 95       	ret

00001b64 <qtm_acquisition_process>:
    1b64:	2f 92       	push	r2
    1b66:	3f 92       	push	r3
    1b68:	4f 92       	push	r4
    1b6a:	5f 92       	push	r5
    1b6c:	6f 92       	push	r6
    1b6e:	7f 92       	push	r7
    1b70:	8f 92       	push	r8
    1b72:	9f 92       	push	r9
    1b74:	af 92       	push	r10
    1b76:	bf 92       	push	r11
    1b78:	cf 92       	push	r12
    1b7a:	df 92       	push	r13
    1b7c:	ef 92       	push	r14
    1b7e:	ff 92       	push	r15
    1b80:	0f 93       	push	r16
    1b82:	1f 93       	push	r17
    1b84:	cf 93       	push	r28
    1b86:	df 93       	push	r29
    1b88:	cd b7       	in	r28, 0x3d	; 61
    1b8a:	de b7       	in	r29, 0x3e	; 62
    1b8c:	27 97       	sbiw	r28, 0x07	; 7
    1b8e:	cd bf       	out	0x3d, r28	; 61
    1b90:	de bf       	out	0x3e, r29	; 62
    1b92:	80 91 e4 40 	lds	r24, 0x40E4	; 0x8040e4 <touch_seq_lib_state>
    1b96:	88 23       	and	r24, r24
    1b98:	09 f4       	brne	.+2      	; 0x1b9c <qtm_acquisition_process+0x38>
    1b9a:	46 c2       	rjmp	.+1164   	; 0x2028 <qtm_acquisition_process+0x4c4>
    1b9c:	00 91 1e 41 	lds	r16, 0x411E	; 0x80411e <qtm_acquisition_control_working_set_ptr>
    1ba0:	10 91 1f 41 	lds	r17, 0x411F	; 0x80411f <qtm_acquisition_control_working_set_ptr+0x1>
    1ba4:	20 91 20 41 	lds	r18, 0x4120	; 0x804120 <qtm_raw_data_measurements_ptr>
    1ba8:	30 91 21 41 	lds	r19, 0x4121	; 0x804121 <qtm_raw_data_measurements_ptr+0x1>
    1bac:	2a 83       	std	Y+2, r18	; 0x02
    1bae:	3b 83       	std	Y+3, r19	; 0x03
    1bb0:	c1 2c       	mov	r12, r1
    1bb2:	d1 2c       	mov	r13, r1
    1bb4:	a1 2c       	mov	r10, r1
    1bb6:	b1 2c       	mov	r11, r1
    1bb8:	21 2c       	mov	r2, r1
    1bba:	31 2c       	mov	r3, r1
    1bbc:	19 82       	std	Y+1, r1	; 0x01
    1bbe:	44 24       	eor	r4, r4
    1bc0:	4a 94       	dec	r4
    1bc2:	55 24       	eor	r5, r5
    1bc4:	53 94       	inc	r5
    1bc6:	77 24       	eor	r7, r7
    1bc8:	73 94       	inc	r7
    1bca:	d8 01       	movw	r26, r16
    1bcc:	0d 90       	ld	r0, X+
    1bce:	bc 91       	ld	r27, X
    1bd0:	a0 2d       	mov	r26, r0
    1bd2:	ae 83       	std	Y+6, r26	; 0x06
    1bd4:	bf 83       	std	Y+7, r27	; 0x07
    1bd6:	8d 91       	ld	r24, X+
    1bd8:	9c 91       	ld	r25, X
    1bda:	28 16       	cp	r2, r24
    1bdc:	39 06       	cpc	r3, r25
    1bde:	08 f0       	brcs	.+2      	; 0x1be2 <qtm_acquisition_process+0x7e>
    1be0:	1f c2       	rjmp	.+1086   	; 0x2020 <qtm_acquisition_process+0x4bc>
    1be2:	aa 81       	ldd	r26, Y+2	; 0x02
    1be4:	bb 81       	ldd	r27, Y+3	; 0x03
    1be6:	4d 91       	ld	r20, X+
    1be8:	5d 91       	ld	r21, X+
    1bea:	aa 83       	std	Y+2, r26	; 0x02
    1bec:	bb 83       	std	Y+3, r27	; 0x03
    1bee:	f8 01       	movw	r30, r16
    1bf0:	e4 80       	ldd	r14, Z+4	; 0x04
    1bf2:	f5 80       	ldd	r15, Z+5	; 0x05
    1bf4:	ea 0c       	add	r14, r10
    1bf6:	fb 1c       	adc	r15, r11
    1bf8:	d7 01       	movw	r26, r14
    1bfa:	2c 91       	ld	r18, X
    1bfc:	82 2f       	mov	r24, r18
    1bfe:	8c 71       	andi	r24, 0x1C	; 28
    1c00:	90 e0       	ldi	r25, 0x00	; 0
    1c02:	96 95       	lsr	r25
    1c04:	87 95       	ror	r24
    1c06:	96 95       	lsr	r25
    1c08:	87 95       	ror	r24
    1c0a:	82 30       	cpi	r24, 0x02	; 2
    1c0c:	91 05       	cpc	r25, r1
    1c0e:	09 f4       	brne	.+2      	; 0x1c12 <qtm_acquisition_process+0xae>
    1c10:	a0 c1       	rjmp	.+832    	; 0x1f52 <qtm_acquisition_process+0x3ee>
    1c12:	28 f4       	brcc	.+10     	; 0x1c1e <qtm_acquisition_process+0xba>
    1c14:	00 97       	sbiw	r24, 0x00	; 0
    1c16:	59 f0       	breq	.+22     	; 0x1c2e <qtm_acquisition_process+0xca>
    1c18:	01 97       	sbiw	r24, 0x01	; 1
    1c1a:	01 f1       	breq	.+64     	; 0x1c5c <qtm_acquisition_process+0xf8>
    1c1c:	f7 c1       	rjmp	.+1006   	; 0x200c <qtm_acquisition_process+0x4a8>
    1c1e:	83 30       	cpi	r24, 0x03	; 3
    1c20:	91 05       	cpc	r25, r1
    1c22:	09 f4       	brne	.+2      	; 0x1c26 <qtm_acquisition_process+0xc2>
    1c24:	59 c1       	rjmp	.+690    	; 0x1ed8 <qtm_acquisition_process+0x374>
    1c26:	04 97       	sbiw	r24, 0x04	; 4
    1c28:	09 f4       	brne	.+2      	; 0x1c2c <qtm_acquisition_process+0xc8>
    1c2a:	e1 c0       	rjmp	.+450    	; 0x1dee <qtm_acquisition_process+0x28a>
    1c2c:	ef c1       	rjmp	.+990    	; 0x200c <qtm_acquisition_process+0x4a8>
    1c2e:	02 80       	ldd	r0, Z+2	; 0x02
    1c30:	f3 81       	ldd	r31, Z+3	; 0x03
    1c32:	e0 2d       	mov	r30, r0
    1c34:	ec 0d       	add	r30, r12
    1c36:	fd 1d       	adc	r31, r13
    1c38:	92 89       	ldd	r25, Z+18	; 0x12
    1c3a:	9f 70       	andi	r25, 0x0F	; 15
    1c3c:	83 89       	ldd	r24, Z+19	; 0x13
    1c3e:	98 17       	cp	r25, r24
    1c40:	10 f4       	brcc	.+4      	; 0x1c46 <qtm_acquisition_process+0xe2>
    1c42:	89 1b       	sub	r24, r25
    1c44:	01 c0       	rjmp	.+2      	; 0x1c48 <qtm_acquisition_process+0xe4>
    1c46:	80 e0       	ldi	r24, 0x00	; 0
    1c48:	9a 01       	movw	r18, r20
    1c4a:	02 c0       	rjmp	.+4      	; 0x1c50 <qtm_acquisition_process+0xec>
    1c4c:	36 95       	lsr	r19
    1c4e:	27 95       	ror	r18
    1c50:	8a 95       	dec	r24
    1c52:	e2 f7       	brpl	.-8      	; 0x1c4c <qtm_acquisition_process+0xe8>
    1c54:	f7 01       	movw	r30, r14
    1c56:	21 83       	std	Z+1, r18	; 0x01
    1c58:	32 83       	std	Z+2, r19	; 0x02
    1c5a:	d8 c1       	rjmp	.+944    	; 0x200c <qtm_acquisition_process+0x4a8>
    1c5c:	82 81       	ldd	r24, Z+2	; 0x02
    1c5e:	93 81       	ldd	r25, Z+3	; 0x03
    1c60:	fc 01       	movw	r30, r24
    1c62:	ec 0d       	add	r30, r12
    1c64:	fd 1d       	adc	r31, r13
    1c66:	4a 01       	movw	r8, r20
    1c68:	03 88       	ldd	r0, Z+19	; 0x13
    1c6a:	02 c0       	rjmp	.+4      	; 0x1c70 <qtm_acquisition_process+0x10c>
    1c6c:	96 94       	lsr	r9
    1c6e:	87 94       	ror	r8
    1c70:	0a 94       	dec	r0
    1c72:	e2 f7       	brpl	.-8      	; 0x1c6c <qtm_acquisition_process+0x108>
    1c74:	d7 01       	movw	r26, r14
    1c76:	11 96       	adiw	r26, 0x01	; 1
    1c78:	8d 92       	st	X+, r8
    1c7a:	9c 92       	st	X, r9
    1c7c:	12 97       	sbiw	r26, 0x02	; 2
    1c7e:	13 96       	adiw	r26, 0x03	; 3
    1c80:	8d 91       	ld	r24, X+
    1c82:	9c 91       	ld	r25, X
    1c84:	14 97       	sbiw	r26, 0x04	; 4
    1c86:	69 2f       	mov	r22, r25
    1c88:	66 1f       	adc	r22, r22
    1c8a:	66 27       	eor	r22, r22
    1c8c:	66 1f       	adc	r22, r22
    1c8e:	81 14       	cp	r8, r1
    1c90:	b2 e0       	ldi	r27, 0x02	; 2
    1c92:	9b 06       	cpc	r9, r27
    1c94:	30 f0       	brcs	.+12     	; 0x1ca2 <qtm_acquisition_process+0x13e>
    1c96:	3f ef       	ldi	r19, 0xFF	; 255
    1c98:	83 1a       	sub	r8, r19
    1c9a:	31 e0       	ldi	r19, 0x01	; 1
    1c9c:	93 0a       	sbc	r9, r19
    1c9e:	41 e0       	ldi	r20, 0x01	; 1
    1ca0:	05 c0       	rjmp	.+10     	; 0x1cac <qtm_acquisition_process+0x148>
    1ca2:	a2 01       	movw	r20, r4
    1ca4:	48 19       	sub	r20, r8
    1ca6:	59 09       	sbc	r21, r9
    1ca8:	4a 01       	movw	r8, r20
    1caa:	40 e0       	ldi	r20, 0x00	; 0
    1cac:	96 94       	lsr	r9
    1cae:	87 94       	ror	r8
    1cb0:	ae 81       	ldd	r26, Y+6	; 0x06
    1cb2:	bf 81       	ldd	r27, Y+7	; 0x07
    1cb4:	12 96       	adiw	r26, 0x02	; 2
    1cb6:	3c 91       	ld	r19, X
    1cb8:	30 34       	cpi	r19, 0x40	; 64
    1cba:	29 f0       	breq	.+10     	; 0x1cc6 <qtm_acquisition_process+0x162>
    1cbc:	44 23       	and	r20, r20
    1cbe:	09 f4       	brne	.+2      	; 0x1cc2 <qtm_acquisition_process+0x15e>
    1cc0:	b6 c1       	rjmp	.+876    	; 0x202e <qtm_acquisition_process+0x4ca>
    1cc2:	46 2f       	mov	r20, r22
    1cc4:	06 c0       	rjmp	.+12     	; 0x1cd2 <qtm_acquisition_process+0x16e>
    1cc6:	97 ff       	sbrs	r25, 7
    1cc8:	04 c0       	rjmp	.+8      	; 0x1cd2 <qtm_acquisition_process+0x16e>
    1cca:	31 e0       	ldi	r19, 0x01	; 1
    1ccc:	41 11       	cpse	r20, r1
    1cce:	30 e0       	ldi	r19, 0x00	; 0
    1cd0:	43 2f       	mov	r20, r19
    1cd2:	ba e0       	ldi	r27, 0x0A	; 10
    1cd4:	8b 16       	cp	r8, r27
    1cd6:	91 04       	cpc	r9, r1
    1cd8:	08 f0       	brcs	.+2      	; 0x1cdc <qtm_acquisition_process+0x178>
    1cda:	3f c0       	rjmp	.+126    	; 0x1d5a <qtm_acquisition_process+0x1f6>
    1cdc:	26 fd       	sbrc	r18, 6
    1cde:	3a c0       	rjmp	.+116    	; 0x1d54 <qtm_acquisition_process+0x1f0>
    1ce0:	27 fd       	sbrc	r18, 7
    1ce2:	94 c1       	rjmp	.+808    	; 0x200c <qtm_acquisition_process+0x4a8>
    1ce4:	ae 81       	ldd	r26, Y+6	; 0x06
    1ce6:	bf 81       	ldd	r27, Y+7	; 0x07
    1ce8:	13 96       	adiw	r26, 0x03	; 3
    1cea:	8c 91       	ld	r24, X
    1cec:	83 70       	andi	r24, 0x03	; 3
    1cee:	83 30       	cpi	r24, 0x03	; 3
    1cf0:	59 f4       	brne	.+22     	; 0x1d08 <qtm_acquisition_process+0x1a4>
    1cf2:	bf e7       	ldi	r27, 0x7F	; 127
    1cf4:	b0 8b       	std	Z+16, r27	; 0x10
    1cf6:	d8 01       	movw	r26, r16
    1cf8:	14 96       	adiw	r26, 0x04	; 4
    1cfa:	ed 91       	ld	r30, X+
    1cfc:	fc 91       	ld	r31, X
    1cfe:	15 97       	sbiw	r26, 0x05	; 5
    1d00:	ea 0d       	add	r30, r10
    1d02:	fb 1d       	adc	r31, r11
    1d04:	b1 e1       	ldi	r27, 0x11	; 17
    1d06:	0d c0       	rjmp	.+26     	; 0x1d22 <qtm_acquisition_process+0x1be>
    1d08:	82 30       	cpi	r24, 0x02	; 2
    1d0a:	69 f4       	brne	.+26     	; 0x1d26 <qtm_acquisition_process+0x1c2>
    1d0c:	81 89       	ldd	r24, Z+17	; 0x11
    1d0e:	80 7f       	andi	r24, 0xF0	; 240
    1d10:	81 8b       	std	Z+17, r24	; 0x11
    1d12:	d8 01       	movw	r26, r16
    1d14:	14 96       	adiw	r26, 0x04	; 4
    1d16:	ed 91       	ld	r30, X+
    1d18:	fc 91       	ld	r31, X
    1d1a:	15 97       	sbiw	r26, 0x05	; 5
    1d1c:	ea 0d       	add	r30, r10
    1d1e:	fb 1d       	adc	r31, r11
    1d20:	b9 e0       	ldi	r27, 0x09	; 9
    1d22:	b0 83       	st	Z, r27
    1d24:	73 c1       	rjmp	.+742    	; 0x200c <qtm_acquisition_process+0x4a8>
    1d26:	81 30       	cpi	r24, 0x01	; 1
    1d28:	a9 f4       	brne	.+42     	; 0x1d54 <qtm_acquisition_process+0x1f0>
    1d2a:	81 89       	ldd	r24, Z+17	; 0x11
    1d2c:	8f 70       	andi	r24, 0x0F	; 15
    1d2e:	81 8b       	std	Z+17, r24	; 0x11
    1d30:	d8 01       	movw	r26, r16
    1d32:	12 96       	adiw	r26, 0x02	; 2
    1d34:	ed 91       	ld	r30, X+
    1d36:	fc 91       	ld	r31, X
    1d38:	13 97       	sbiw	r26, 0x03	; 3
    1d3a:	ec 0d       	add	r30, r12
    1d3c:	fd 1d       	adc	r31, r13
    1d3e:	81 89       	ldd	r24, Z+17	; 0x11
    1d40:	80 67       	ori	r24, 0x70	; 112
    1d42:	81 8b       	std	Z+17, r24	; 0x11
    1d44:	14 96       	adiw	r26, 0x04	; 4
    1d46:	ed 91       	ld	r30, X+
    1d48:	fc 91       	ld	r31, X
    1d4a:	15 97       	sbiw	r26, 0x05	; 5
    1d4c:	ea 0d       	add	r30, r10
    1d4e:	fb 1d       	adc	r31, r11
    1d50:	bd e0       	ldi	r27, 0x0D	; 13
    1d52:	e7 cf       	rjmp	.-50     	; 0x1d22 <qtm_acquisition_process+0x1be>
    1d54:	f7 01       	movw	r30, r14
    1d56:	70 82       	st	Z, r7
    1d58:	59 c1       	rjmp	.+690    	; 0x200c <qtm_acquisition_process+0x4a8>
    1d5a:	9c 01       	movw	r18, r24
    1d5c:	33 70       	andi	r19, 0x03	; 3
    1d5e:	2f 3f       	cpi	r18, 0xFF	; 255
    1d60:	f3 e0       	ldi	r31, 0x03	; 3
    1d62:	3f 07       	cpc	r19, r31
    1d64:	31 f4       	brne	.+12     	; 0x1d72 <qtm_acquisition_process+0x20e>
    1d66:	e1 e8       	ldi	r30, 0x81	; 129
    1d68:	d7 01       	movw	r26, r14
    1d6a:	ec 93       	st	X, r30
    1d6c:	8f ef       	ldi	r24, 0xFF	; 255
    1d6e:	93 e0       	ldi	r25, 0x03	; 3
    1d70:	0b c0       	rjmp	.+22     	; 0x1d88 <qtm_acquisition_process+0x224>
    1d72:	21 15       	cp	r18, r1
    1d74:	31 05       	cpc	r19, r1
    1d76:	59 f4       	brne	.+22     	; 0x1d8e <qtm_acquisition_process+0x22a>
    1d78:	97 ff       	sbrs	r25, 7
    1d7a:	25 c0       	rjmp	.+74     	; 0x1dc6 <qtm_acquisition_process+0x262>
    1d7c:	e1 e8       	ldi	r30, 0x81	; 129
    1d7e:	d7 01       	movw	r26, r14
    1d80:	ec 93       	st	X, r30
    1d82:	80 e0       	ldi	r24, 0x00	; 0
    1d84:	90 e0       	ldi	r25, 0x00	; 0
    1d86:	61 e0       	ldi	r22, 0x01	; 1
    1d88:	fe e0       	ldi	r31, 0x0E	; 14
    1d8a:	f9 83       	std	Y+1, r31	; 0x01
    1d8c:	1f c0       	rjmp	.+62     	; 0x1dcc <qtm_acquisition_process+0x268>
    1d8e:	c9 01       	movw	r24, r18
    1d90:	41 11       	cpse	r20, r1
    1d92:	0f c0       	rjmp	.+30     	; 0x1db2 <qtm_acquisition_process+0x24e>
    1d94:	01 96       	adiw	r24, 0x01	; 1
    1d96:	21 e0       	ldi	r18, 0x01	; 1
    1d98:	82 1a       	sub	r8, r18
    1d9a:	91 08       	sbc	r9, r1
    1d9c:	31 e0       	ldi	r19, 0x01	; 1
    1d9e:	83 16       	cp	r8, r19
    1da0:	91 04       	cpc	r9, r1
    1da2:	a1 f0       	breq	.+40     	; 0x1dcc <qtm_acquisition_process+0x268>
    1da4:	8f 3f       	cpi	r24, 0xFF	; 255
    1da6:	43 e0       	ldi	r20, 0x03	; 3
    1da8:	94 07       	cpc	r25, r20
    1daa:	a1 f7       	brne	.-24     	; 0x1d94 <qtm_acquisition_process+0x230>
    1dac:	0f c0       	rjmp	.+30     	; 0x1dcc <qtm_acquisition_process+0x268>
    1dae:	00 97       	sbiw	r24, 0x00	; 0
    1db0:	69 f0       	breq	.+26     	; 0x1dcc <qtm_acquisition_process+0x268>
    1db2:	01 97       	sbiw	r24, 0x01	; 1
    1db4:	ac 01       	movw	r20, r24
    1db6:	42 1b       	sub	r20, r18
    1db8:	53 0b       	sbc	r21, r19
    1dba:	48 0d       	add	r20, r8
    1dbc:	59 1d       	adc	r21, r9
    1dbe:	41 30       	cpi	r20, 0x01	; 1
    1dc0:	51 05       	cpc	r21, r1
    1dc2:	a9 f7       	brne	.-22     	; 0x1dae <qtm_acquisition_process+0x24a>
    1dc4:	03 c0       	rjmp	.+6      	; 0x1dcc <qtm_acquisition_process+0x268>
    1dc6:	80 ef       	ldi	r24, 0xF0	; 240
    1dc8:	90 e0       	ldi	r25, 0x00	; 0
    1dca:	61 e0       	ldi	r22, 0x01	; 1
    1dcc:	d8 01       	movw	r26, r16
    1dce:	14 96       	adiw	r26, 0x04	; 4
    1dd0:	ed 91       	ld	r30, X+
    1dd2:	fc 91       	ld	r31, X
    1dd4:	15 97       	sbiw	r26, 0x05	; 5
    1dd6:	ea 0d       	add	r30, r10
    1dd8:	fb 1d       	adc	r31, r11
    1dda:	70 e0       	ldi	r23, 0x00	; 0
    1ddc:	77 27       	eor	r23, r23
    1dde:	66 95       	lsr	r22
    1de0:	77 95       	ror	r23
    1de2:	66 27       	eor	r22, r22
    1de4:	86 2b       	or	r24, r22
    1de6:	97 2b       	or	r25, r23
    1de8:	83 83       	std	Z+3, r24	; 0x03
    1dea:	94 83       	std	Z+4, r25	; 0x04
    1dec:	0f c1       	rjmp	.+542    	; 0x200c <qtm_acquisition_process+0x4a8>
    1dee:	f8 01       	movw	r30, r16
    1df0:	82 80       	ldd	r8, Z+2	; 0x02
    1df2:	93 80       	ldd	r9, Z+3	; 0x03
    1df4:	8c 0c       	add	r8, r12
    1df6:	9d 1c       	adc	r9, r13
    1df8:	fa 01       	movw	r30, r20
    1dfa:	d4 01       	movw	r26, r8
    1dfc:	53 96       	adiw	r26, 0x13	; 19
    1dfe:	0c 90       	ld	r0, X
    1e00:	53 97       	sbiw	r26, 0x13	; 19
    1e02:	02 c0       	rjmp	.+4      	; 0x1e08 <qtm_acquisition_process+0x2a4>
    1e04:	f6 95       	lsr	r31
    1e06:	e7 95       	ror	r30
    1e08:	0a 94       	dec	r0
    1e0a:	e2 f7       	brpl	.-8      	; 0x1e04 <qtm_acquisition_process+0x2a0>
    1e0c:	ec 83       	std	Y+4, r30	; 0x04
    1e0e:	fd 83       	std	Y+5, r31	; 0x05
    1e10:	50 96       	adiw	r26, 0x10	; 16
    1e12:	6c 90       	ld	r6, X
    1e14:	ff e7       	ldi	r31, 0x7F	; 127
    1e16:	6f 12       	cpse	r6, r31
    1e18:	0f c0       	rjmp	.+30     	; 0x1e38 <qtm_acquisition_process+0x2d4>
    1e1a:	ec 81       	ldd	r30, Y+4	; 0x04
    1e1c:	fd 81       	ldd	r31, Y+5	; 0x05
    1e1e:	d7 01       	movw	r26, r14
    1e20:	11 96       	adiw	r26, 0x01	; 1
    1e22:	ed 93       	st	X+, r30
    1e24:	fc 93       	st	X, r31
    1e26:	12 97       	sbiw	r26, 0x02	; 2
    1e28:	d4 01       	movw	r26, r8
    1e2a:	50 96       	adiw	r26, 0x10	; 16
    1e2c:	8c 91       	ld	r24, X
    1e2e:	50 97       	sbiw	r26, 0x10	; 16
    1e30:	8f 7b       	andi	r24, 0xBF	; 191
    1e32:	50 96       	adiw	r26, 0x10	; 16
    1e34:	8c 93       	st	X, r24
    1e36:	42 c0       	rjmp	.+132    	; 0x1ebc <qtm_acquisition_process+0x358>
    1e38:	f1 2c       	mov	r15, r1
    1e3a:	26 2d       	mov	r18, r6
    1e3c:	30 e0       	ldi	r19, 0x00	; 0
    1e3e:	c9 01       	movw	r24, r18
    1e40:	0f 2c       	mov	r0, r15
    1e42:	02 c0       	rjmp	.+4      	; 0x1e48 <qtm_acquisition_process+0x2e4>
    1e44:	96 95       	lsr	r25
    1e46:	87 95       	ror	r24
    1e48:	0a 94       	dec	r0
    1e4a:	e2 f7       	brpl	.-8      	; 0x1e44 <qtm_acquisition_process+0x2e0>
    1e4c:	80 ff       	sbrs	r24, 0
    1e4e:	03 c0       	rjmp	.+6      	; 0x1e56 <qtm_acquisition_process+0x2f2>
    1e50:	8f 2d       	mov	r24, r15
    1e52:	f1 2c       	mov	r15, r1
    1e54:	01 c0       	rjmp	.+2      	; 0x1e58 <qtm_acquisition_process+0x2f4>
    1e56:	87 e0       	ldi	r24, 0x07	; 7
    1e58:	8f 5f       	subi	r24, 0xFF	; 255
    1e5a:	87 30       	cpi	r24, 0x07	; 7
    1e5c:	10 f4       	brcc	.+4      	; 0x1e62 <qtm_acquisition_process+0x2fe>
    1e5e:	f8 2e       	mov	r15, r24
    1e60:	ee cf       	rjmp	.-36     	; 0x1e3e <qtm_acquisition_process+0x2da>
    1e62:	6c 81       	ldd	r22, Y+4	; 0x04
    1e64:	7d 81       	ldd	r23, Y+5	; 0x05
    1e66:	c1 01       	movw	r24, r2
    1e68:	0e 94 22 0c 	call	0x1844	; 0x1844 <charge_share_test>
    1e6c:	88 23       	and	r24, r24
    1e6e:	51 f0       	breq	.+20     	; 0x1e84 <qtm_acquisition_process+0x320>
    1e70:	81 e0       	ldi	r24, 0x01	; 1
    1e72:	90 e0       	ldi	r25, 0x00	; 0
    1e74:	0f 2c       	mov	r0, r15
    1e76:	01 c0       	rjmp	.+2      	; 0x1e7a <qtm_acquisition_process+0x316>
    1e78:	88 0f       	add	r24, r24
    1e7a:	0a 94       	dec	r0
    1e7c:	ea f7       	brpl	.-6      	; 0x1e78 <qtm_acquisition_process+0x314>
    1e7e:	86 29       	or	r24, r6
    1e80:	f4 01       	movw	r30, r8
    1e82:	80 8b       	std	Z+16, r24	; 0x10
    1e84:	d8 01       	movw	r26, r16
    1e86:	ff 20       	and	r15, r15
    1e88:	91 f0       	breq	.+36     	; 0x1eae <qtm_acquisition_process+0x34a>
    1e8a:	12 96       	adiw	r26, 0x02	; 2
    1e8c:	ed 91       	ld	r30, X+
    1e8e:	fc 91       	ld	r31, X
    1e90:	13 97       	sbiw	r26, 0x03	; 3
    1e92:	ec 0d       	add	r30, r12
    1e94:	fd 1d       	adc	r31, r13
    1e96:	fa 94       	dec	r15
    1e98:	81 e0       	ldi	r24, 0x01	; 1
    1e9a:	90 e0       	ldi	r25, 0x00	; 0
    1e9c:	01 c0       	rjmp	.+2      	; 0x1ea0 <qtm_acquisition_process+0x33c>
    1e9e:	88 0f       	add	r24, r24
    1ea0:	fa 94       	dec	r15
    1ea2:	ea f7       	brpl	.-6      	; 0x1e9e <qtm_acquisition_process+0x33a>
    1ea4:	80 95       	com	r24
    1ea6:	90 89       	ldd	r25, Z+16	; 0x10
    1ea8:	89 23       	and	r24, r25
    1eaa:	80 8b       	std	Z+16, r24	; 0x10
    1eac:	07 c0       	rjmp	.+14     	; 0x1ebc <qtm_acquisition_process+0x358>
    1eae:	14 96       	adiw	r26, 0x04	; 4
    1eb0:	ed 91       	ld	r30, X+
    1eb2:	fc 91       	ld	r31, X
    1eb4:	15 97       	sbiw	r26, 0x05	; 5
    1eb6:	ea 0d       	add	r30, r10
    1eb8:	fb 1d       	adc	r31, r11
    1eba:	70 82       	st	Z, r7
    1ebc:	d8 01       	movw	r26, r16
    1ebe:	14 96       	adiw	r26, 0x04	; 4
    1ec0:	ed 91       	ld	r30, X+
    1ec2:	fc 91       	ld	r31, X
    1ec4:	15 97       	sbiw	r26, 0x05	; 5
    1ec6:	ea 0d       	add	r30, r10
    1ec8:	fb 1d       	adc	r31, r11
    1eca:	80 81       	ld	r24, Z
    1ecc:	81 30       	cpi	r24, 0x01	; 1
    1ece:	09 f0       	breq	.+2      	; 0x1ed2 <qtm_acquisition_process+0x36e>
    1ed0:	9d c0       	rjmp	.+314    	; 0x200c <qtm_acquisition_process+0x4a8>
    1ed2:	2c 81       	ldd	r18, Y+4	; 0x04
    1ed4:	3d 81       	ldd	r19, Y+5	; 0x05
    1ed6:	83 c0       	rjmp	.+262    	; 0x1fde <qtm_acquisition_process+0x47a>
    1ed8:	02 80       	ldd	r0, Z+2	; 0x02
    1eda:	f3 81       	ldd	r31, Z+3	; 0x03
    1edc:	e0 2d       	mov	r30, r0
    1ede:	ec 0d       	add	r30, r12
    1ee0:	fd 1d       	adc	r31, r13
    1ee2:	9a 01       	movw	r18, r20
    1ee4:	03 88       	ldd	r0, Z+19	; 0x13
    1ee6:	02 c0       	rjmp	.+4      	; 0x1eec <qtm_acquisition_process+0x388>
    1ee8:	36 95       	lsr	r19
    1eea:	27 95       	ror	r18
    1eec:	0a 94       	dec	r0
    1eee:	e2 f7       	brpl	.-8      	; 0x1ee8 <qtm_acquisition_process+0x384>
    1ef0:	2c 83       	std	Y+4, r18	; 0x04
    1ef2:	3d 83       	std	Y+5, r19	; 0x05
    1ef4:	91 88       	ldd	r9, Z+17	; 0x11
    1ef6:	92 94       	swap	r9
    1ef8:	2f e0       	ldi	r18, 0x0F	; 15
    1efa:	92 22       	and	r9, r18
    1efc:	37 e0       	ldi	r19, 0x07	; 7
    1efe:	93 16       	cp	r9, r19
    1f00:	91 f0       	breq	.+36     	; 0x1f26 <qtm_acquisition_process+0x3c2>
    1f02:	6c 81       	ldd	r22, Y+4	; 0x04
    1f04:	7d 81       	ldd	r23, Y+5	; 0x05
    1f06:	c1 01       	movw	r24, r2
    1f08:	0e 94 22 0c 	call	0x1844	; 0x1844 <charge_share_test>
    1f0c:	81 11       	cpse	r24, r1
    1f0e:	04 c0       	rjmp	.+8      	; 0x1f18 <qtm_acquisition_process+0x3b4>
    1f10:	93 94       	inc	r9
    1f12:	d7 01       	movw	r26, r14
    1f14:	7c 92       	st	X, r7
    1f16:	09 c0       	rjmp	.+18     	; 0x1f2a <qtm_acquisition_process+0x3c6>
    1f18:	91 10       	cpse	r9, r1
    1f1a:	03 c0       	rjmp	.+6      	; 0x1f22 <qtm_acquisition_process+0x3be>
    1f1c:	f7 01       	movw	r30, r14
    1f1e:	70 82       	st	Z, r7
    1f20:	04 c0       	rjmp	.+8      	; 0x1f2a <qtm_acquisition_process+0x3c6>
    1f22:	9a 94       	dec	r9
    1f24:	02 c0       	rjmp	.+4      	; 0x1f2a <qtm_acquisition_process+0x3c6>
    1f26:	96 e0       	ldi	r25, 0x06	; 6
    1f28:	99 2e       	mov	r9, r25
    1f2a:	d8 01       	movw	r26, r16
    1f2c:	12 96       	adiw	r26, 0x02	; 2
    1f2e:	ed 91       	ld	r30, X+
    1f30:	fc 91       	ld	r31, X
    1f32:	13 97       	sbiw	r26, 0x03	; 3
    1f34:	ec 0d       	add	r30, r12
    1f36:	fd 1d       	adc	r31, r13
    1f38:	81 89       	ldd	r24, Z+17	; 0x11
    1f3a:	8f 70       	andi	r24, 0x0F	; 15
    1f3c:	81 8b       	std	Z+17, r24	; 0x11
    1f3e:	12 96       	adiw	r26, 0x02	; 2
    1f40:	ed 91       	ld	r30, X+
    1f42:	fc 91       	ld	r31, X
    1f44:	13 97       	sbiw	r26, 0x03	; 3
    1f46:	ec 0d       	add	r30, r12
    1f48:	fd 1d       	adc	r31, r13
    1f4a:	92 94       	swap	r9
    1f4c:	80 ef       	ldi	r24, 0xF0	; 240
    1f4e:	98 22       	and	r9, r24
    1f50:	36 c0       	rjmp	.+108    	; 0x1fbe <qtm_acquisition_process+0x45a>
    1f52:	02 80       	ldd	r0, Z+2	; 0x02
    1f54:	f3 81       	ldd	r31, Z+3	; 0x03
    1f56:	e0 2d       	mov	r30, r0
    1f58:	ec 0d       	add	r30, r12
    1f5a:	fd 1d       	adc	r31, r13
    1f5c:	9a 01       	movw	r18, r20
    1f5e:	03 88       	ldd	r0, Z+19	; 0x13
    1f60:	02 c0       	rjmp	.+4      	; 0x1f66 <qtm_acquisition_process+0x402>
    1f62:	36 95       	lsr	r19
    1f64:	27 95       	ror	r18
    1f66:	0a 94       	dec	r0
    1f68:	e2 f7       	brpl	.-8      	; 0x1f62 <qtm_acquisition_process+0x3fe>
    1f6a:	2c 83       	std	Y+4, r18	; 0x04
    1f6c:	3d 83       	std	Y+5, r19	; 0x05
    1f6e:	81 89       	ldd	r24, Z+17	; 0x11
    1f70:	8f 70       	andi	r24, 0x0F	; 15
    1f72:	98 2e       	mov	r9, r24
    1f74:	91 f0       	breq	.+36     	; 0x1f9a <qtm_acquisition_process+0x436>
    1f76:	b9 01       	movw	r22, r18
    1f78:	c1 01       	movw	r24, r2
    1f7a:	0e 94 22 0c 	call	0x1844	; 0x1844 <charge_share_test>
    1f7e:	81 11       	cpse	r24, r1
    1f80:	04 c0       	rjmp	.+8      	; 0x1f8a <qtm_acquisition_process+0x426>
    1f82:	9a 94       	dec	r9
    1f84:	d7 01       	movw	r26, r14
    1f86:	7c 92       	st	X, r7
    1f88:	0a c0       	rjmp	.+20     	; 0x1f9e <qtm_acquisition_process+0x43a>
    1f8a:	b7 e0       	ldi	r27, 0x07	; 7
    1f8c:	9b 12       	cpse	r9, r27
    1f8e:	03 c0       	rjmp	.+6      	; 0x1f96 <qtm_acquisition_process+0x432>
    1f90:	f7 01       	movw	r30, r14
    1f92:	70 82       	st	Z, r7
    1f94:	04 c0       	rjmp	.+8      	; 0x1f9e <qtm_acquisition_process+0x43a>
    1f96:	93 94       	inc	r9
    1f98:	02 c0       	rjmp	.+4      	; 0x1f9e <qtm_acquisition_process+0x43a>
    1f9a:	99 24       	eor	r9, r9
    1f9c:	93 94       	inc	r9
    1f9e:	d8 01       	movw	r26, r16
    1fa0:	12 96       	adiw	r26, 0x02	; 2
    1fa2:	ed 91       	ld	r30, X+
    1fa4:	fc 91       	ld	r31, X
    1fa6:	13 97       	sbiw	r26, 0x03	; 3
    1fa8:	ec 0d       	add	r30, r12
    1faa:	fd 1d       	adc	r31, r13
    1fac:	81 89       	ldd	r24, Z+17	; 0x11
    1fae:	80 7f       	andi	r24, 0xF0	; 240
    1fb0:	81 8b       	std	Z+17, r24	; 0x11
    1fb2:	12 96       	adiw	r26, 0x02	; 2
    1fb4:	ed 91       	ld	r30, X+
    1fb6:	fc 91       	ld	r31, X
    1fb8:	13 97       	sbiw	r26, 0x03	; 3
    1fba:	ec 0d       	add	r30, r12
    1fbc:	fd 1d       	adc	r31, r13
    1fbe:	81 89       	ldd	r24, Z+17	; 0x11
    1fc0:	98 2a       	or	r9, r24
    1fc2:	91 8a       	std	Z+17, r9	; 0x11
    1fc4:	14 96       	adiw	r26, 0x04	; 4
    1fc6:	ed 91       	ld	r30, X+
    1fc8:	fc 91       	ld	r31, X
    1fca:	15 97       	sbiw	r26, 0x05	; 5
    1fcc:	ea 0d       	add	r30, r10
    1fce:	fb 1d       	adc	r31, r11
    1fd0:	2c 81       	ldd	r18, Y+4	; 0x04
    1fd2:	3d 81       	ldd	r19, Y+5	; 0x05
    1fd4:	21 83       	std	Z+1, r18	; 0x01
    1fd6:	32 83       	std	Z+2, r19	; 0x02
    1fd8:	80 81       	ld	r24, Z
    1fda:	81 30       	cpi	r24, 0x01	; 1
    1fdc:	b9 f4       	brne	.+46     	; 0x200c <qtm_acquisition_process+0x4a8>
    1fde:	21 15       	cp	r18, r1
    1fe0:	42 e0       	ldi	r20, 0x02	; 2
    1fe2:	34 07       	cpc	r19, r20
    1fe4:	28 f0       	brcs	.+10     	; 0x1ff0 <qtm_acquisition_process+0x48c>
    1fe6:	2f 5f       	subi	r18, 0xFF	; 255
    1fe8:	31 40       	sbci	r19, 0x01	; 1
    1fea:	2c 83       	std	Y+4, r18	; 0x04
    1fec:	3d 83       	std	Y+5, r19	; 0x05
    1fee:	07 c0       	rjmp	.+14     	; 0x1ffe <qtm_acquisition_process+0x49a>
    1ff0:	c2 01       	movw	r24, r4
    1ff2:	ac 81       	ldd	r26, Y+4	; 0x04
    1ff4:	bd 81       	ldd	r27, Y+5	; 0x05
    1ff6:	8a 1b       	sub	r24, r26
    1ff8:	9b 0b       	sbc	r25, r27
    1ffa:	8c 83       	std	Y+4, r24	; 0x04
    1ffc:	9d 83       	std	Y+5, r25	; 0x05
    1ffe:	2c 81       	ldd	r18, Y+4	; 0x04
    2000:	3d 81       	ldd	r19, Y+5	; 0x05
    2002:	2b 30       	cpi	r18, 0x0B	; 11
    2004:	31 05       	cpc	r19, r1
    2006:	10 f0       	brcs	.+4      	; 0x200c <qtm_acquisition_process+0x4a8>
    2008:	35 e4       	ldi	r19, 0x45	; 69
    200a:	30 83       	st	Z, r19
    200c:	4f ef       	ldi	r20, 0xFF	; 255
    200e:	24 1a       	sub	r2, r20
    2010:	34 0a       	sbc	r3, r20
    2012:	55 e0       	ldi	r21, 0x05	; 5
    2014:	a5 0e       	add	r10, r21
    2016:	b1 1c       	adc	r11, r1
    2018:	84 e1       	ldi	r24, 0x14	; 20
    201a:	c8 0e       	add	r12, r24
    201c:	d1 1c       	adc	r13, r1
    201e:	d5 cd       	rjmp	.-1110   	; 0x1bca <qtm_acquisition_process+0x66>
    2020:	82 e0       	ldi	r24, 0x02	; 2
    2022:	80 93 e4 40 	sts	0x40E4, r24	; 0x8040e4 <touch_seq_lib_state>
    2026:	09 c0       	rjmp	.+18     	; 0x203a <qtm_acquisition_process+0x4d6>
    2028:	b3 e0       	ldi	r27, 0x03	; 3
    202a:	b9 83       	std	Y+1, r27	; 0x01
    202c:	06 c0       	rjmp	.+12     	; 0x203a <qtm_acquisition_process+0x4d6>
    202e:	49 2f       	mov	r20, r25
    2030:	40 95       	com	r20
    2032:	44 1f       	adc	r20, r20
    2034:	44 27       	eor	r20, r20
    2036:	44 1f       	adc	r20, r20
    2038:	4c ce       	rjmp	.-872    	; 0x1cd2 <qtm_acquisition_process+0x16e>
    203a:	89 81       	ldd	r24, Y+1	; 0x01
    203c:	27 96       	adiw	r28, 0x07	; 7
    203e:	cd bf       	out	0x3d, r28	; 61
    2040:	de bf       	out	0x3e, r29	; 62
    2042:	df 91       	pop	r29
    2044:	cf 91       	pop	r28
    2046:	1f 91       	pop	r17
    2048:	0f 91       	pop	r16
    204a:	ff 90       	pop	r15
    204c:	ef 90       	pop	r14
    204e:	df 90       	pop	r13
    2050:	cf 90       	pop	r12
    2052:	bf 90       	pop	r11
    2054:	af 90       	pop	r10
    2056:	9f 90       	pop	r9
    2058:	8f 90       	pop	r8
    205a:	7f 90       	pop	r7
    205c:	6f 90       	pop	r6
    205e:	5f 90       	pop	r5
    2060:	4f 90       	pop	r4
    2062:	3f 90       	pop	r3
    2064:	2f 90       	pop	r2
    2066:	08 95       	ret

00002068 <qtm_ptc_init_acquisition_module>:
    2068:	5f 92       	push	r5
    206a:	6f 92       	push	r6
    206c:	7f 92       	push	r7
    206e:	8f 92       	push	r8
    2070:	9f 92       	push	r9
    2072:	af 92       	push	r10
    2074:	bf 92       	push	r11
    2076:	cf 92       	push	r12
    2078:	df 92       	push	r13
    207a:	ef 92       	push	r14
    207c:	ff 92       	push	r15
    207e:	0f 93       	push	r16
    2080:	1f 93       	push	r17
    2082:	cf 93       	push	r28
    2084:	df 93       	push	r29
    2086:	00 97       	sbiw	r24, 0x00	; 0
    2088:	09 f4       	brne	.+2      	; 0x208c <qtm_ptc_init_acquisition_module+0x24>
    208a:	92 c0       	rjmp	.+292    	; 0x21b0 <qtm_ptc_init_acquisition_module+0x148>
    208c:	dc 01       	movw	r26, r24
    208e:	ed 91       	ld	r30, X+
    2090:	fc 91       	ld	r31, X
    2092:	60 81       	ld	r22, Z
    2094:	71 81       	ldd	r23, Z+1	; 0x01
    2096:	40 e0       	ldi	r20, 0x00	; 0
    2098:	50 e0       	ldi	r21, 0x00	; 0
    209a:	20 e0       	ldi	r18, 0x00	; 0
    209c:	30 e0       	ldi	r19, 0x00	; 0
    209e:	b0 e0       	ldi	r27, 0x00	; 0
    20a0:	10 e0       	ldi	r17, 0x00	; 0
    20a2:	f1 2c       	mov	r15, r1
    20a4:	e1 2c       	mov	r14, r1
    20a6:	91 2c       	mov	r9, r1
    20a8:	81 2c       	mov	r8, r1
    20aa:	71 2c       	mov	r7, r1
    20ac:	61 2c       	mov	r6, r1
    20ae:	26 17       	cp	r18, r22
    20b0:	37 07       	cpc	r19, r23
    20b2:	51 f1       	breq	.+84     	; 0x2108 <qtm_ptc_init_acquisition_module+0xa0>
    20b4:	ec 01       	movw	r28, r24
    20b6:	ea 81       	ldd	r30, Y+2	; 0x02
    20b8:	fb 81       	ldd	r31, Y+3	; 0x03
    20ba:	e4 0f       	add	r30, r20
    20bc:	f5 1f       	adc	r31, r21
    20be:	a0 80       	ld	r10, Z
    20c0:	a0 85       	ldd	r26, Z+8	; 0x08
    20c2:	aa 2a       	or	r10, r26
    20c4:	b1 80       	ldd	r11, Z+1	; 0x01
    20c6:	a1 85       	ldd	r26, Z+9	; 0x09
    20c8:	ba 2a       	or	r11, r26
    20ca:	c2 80       	ldd	r12, Z+2	; 0x02
    20cc:	a2 85       	ldd	r26, Z+10	; 0x0a
    20ce:	ca 2a       	or	r12, r26
    20d0:	d3 80       	ldd	r13, Z+3	; 0x03
    20d2:	a3 85       	ldd	r26, Z+11	; 0x0b
    20d4:	da 2a       	or	r13, r26
    20d6:	d4 81       	ldd	r29, Z+4	; 0x04
    20d8:	a4 85       	ldd	r26, Z+12	; 0x0c
    20da:	da 2b       	or	r29, r26
    20dc:	c5 81       	ldd	r28, Z+5	; 0x05
    20de:	a5 85       	ldd	r26, Z+13	; 0x0d
    20e0:	ca 2b       	or	r28, r26
    20e2:	56 80       	ldd	r5, Z+6	; 0x06
    20e4:	a6 85       	ldd	r26, Z+14	; 0x0e
    20e6:	a5 29       	or	r26, r5
    20e8:	57 80       	ldd	r5, Z+7	; 0x07
    20ea:	e7 85       	ldd	r30, Z+15	; 0x0f
    20ec:	e5 29       	or	r30, r5
    20ee:	ba 29       	or	r27, r10
    20f0:	1b 29       	or	r17, r11
    20f2:	fc 28       	or	r15, r12
    20f4:	ed 28       	or	r14, r13
    20f6:	9d 2a       	or	r9, r29
    20f8:	8c 2a       	or	r8, r28
    20fa:	7a 2a       	or	r7, r26
    20fc:	6e 2a       	or	r6, r30
    20fe:	2f 5f       	subi	r18, 0xFF	; 255
    2100:	3f 4f       	sbci	r19, 0xFF	; 255
    2102:	4c 5e       	subi	r20, 0xEC	; 236
    2104:	5f 4f       	sbci	r21, 0xFF	; 255
    2106:	d3 cf       	rjmp	.-90     	; 0x20ae <qtm_ptc_init_acquisition_module+0x46>
    2108:	2b 2f       	mov	r18, r27
    210a:	31 2f       	mov	r19, r17
    210c:	4f 2d       	mov	r20, r15
    210e:	5e 2d       	mov	r21, r14
    2110:	69 2d       	mov	r22, r9
    2112:	78 2d       	mov	r23, r8
    2114:	87 2d       	mov	r24, r7
    2116:	96 2d       	mov	r25, r6
    2118:	a0 e0       	ldi	r26, 0x00	; 0
    211a:	0e 94 aa 13 	call	0x2754	; 0x2754 <__cmpdi2_s8>
    211e:	09 f4       	brne	.+2      	; 0x2122 <qtm_ptc_init_acquisition_module+0xba>
    2120:	49 c0       	rjmp	.+146    	; 0x21b4 <qtm_ptc_init_acquisition_module+0x14c>
    2122:	81 e0       	ldi	r24, 0x01	; 1
    2124:	80 93 e4 40 	sts	0x40E4, r24	; 0x8040e4 <touch_seq_lib_state>
    2128:	24 ea       	ldi	r18, 0xA4	; 164
    212a:	c2 2e       	mov	r12, r18
    212c:	20 e4       	ldi	r18, 0x40	; 64
    212e:	d2 2e       	mov	r13, r18
    2130:	c0 e0       	ldi	r28, 0x00	; 0
    2132:	d0 e0       	ldi	r29, 0x00	; 0
    2134:	aa 24       	eor	r10, r10
    2136:	a3 94       	inc	r10
    2138:	b1 2c       	mov	r11, r1
    213a:	4c e0       	ldi	r20, 0x0C	; 12
    213c:	54 2e       	mov	r5, r20
    213e:	2b 2f       	mov	r18, r27
    2140:	31 2f       	mov	r19, r17
    2142:	4f 2d       	mov	r20, r15
    2144:	5e 2d       	mov	r21, r14
    2146:	69 2d       	mov	r22, r9
    2148:	78 2d       	mov	r23, r8
    214a:	87 2d       	mov	r24, r7
    214c:	96 2d       	mov	r25, r6
    214e:	0c 2f       	mov	r16, r28
    2150:	0e 94 8e 13 	call	0x271c	; 0x271c <__lshrdi3>
    2154:	21 70       	andi	r18, 0x01	; 1
    2156:	30 e0       	ldi	r19, 0x00	; 0
    2158:	40 e0       	ldi	r20, 0x00	; 0
    215a:	50 e0       	ldi	r21, 0x00	; 0
    215c:	60 e0       	ldi	r22, 0x00	; 0
    215e:	70 e0       	ldi	r23, 0x00	; 0
    2160:	80 e0       	ldi	r24, 0x00	; 0
    2162:	90 e0       	ldi	r25, 0x00	; 0
    2164:	a0 e0       	ldi	r26, 0x00	; 0
    2166:	0e 94 aa 13 	call	0x2754	; 0x2754 <__cmpdi2_s8>
    216a:	c9 f0       	breq	.+50     	; 0x219e <qtm_ptc_init_acquisition_module+0x136>
    216c:	f6 01       	movw	r30, r12
    216e:	80 81       	ld	r24, Z
    2170:	e8 2f       	mov	r30, r24
    2172:	e2 95       	swap	r30
    2174:	e6 95       	lsr	r30
    2176:	e7 70       	andi	r30, 0x07	; 7
    2178:	f0 e0       	ldi	r31, 0x00	; 0
    217a:	ee 0f       	add	r30, r30
    217c:	ff 1f       	adc	r31, r31
    217e:	ea 56       	subi	r30, 0x6A	; 106
    2180:	ff 4b       	sbci	r31, 0xBF	; 191
    2182:	01 90       	ld	r0, Z+
    2184:	f0 81       	ld	r31, Z
    2186:	e0 2d       	mov	r30, r0
    2188:	8f 71       	andi	r24, 0x1F	; 31
    218a:	95 01       	movw	r18, r10
    218c:	02 c0       	rjmp	.+4      	; 0x2192 <qtm_ptc_init_acquisition_module+0x12a>
    218e:	22 0f       	add	r18, r18
    2190:	33 1f       	adc	r19, r19
    2192:	8a 95       	dec	r24
    2194:	e2 f7       	brpl	.-8      	; 0x218e <qtm_ptc_init_acquisition_module+0x126>
    2196:	22 83       	std	Z+2, r18	; 0x02
    2198:	26 83       	std	Z+6, r18	; 0x06
    219a:	53 86       	std	Z+11, r5	; 0x0b
    219c:	25 87       	std	Z+13, r18	; 0x0d
    219e:	21 96       	adiw	r28, 0x01	; 1
    21a0:	3f ef       	ldi	r19, 0xFF	; 255
    21a2:	c3 1a       	sub	r12, r19
    21a4:	d3 0a       	sbc	r13, r19
    21a6:	c0 33       	cpi	r28, 0x30	; 48
    21a8:	d1 05       	cpc	r29, r1
    21aa:	49 f6       	brne	.-110    	; 0x213e <qtm_ptc_init_acquisition_module+0xd6>
    21ac:	80 e0       	ldi	r24, 0x00	; 0
    21ae:	03 c0       	rjmp	.+6      	; 0x21b6 <qtm_ptc_init_acquisition_module+0x14e>
    21b0:	8b e0       	ldi	r24, 0x0B	; 11
    21b2:	01 c0       	rjmp	.+2      	; 0x21b6 <qtm_ptc_init_acquisition_module+0x14e>
    21b4:	82 e0       	ldi	r24, 0x02	; 2
    21b6:	df 91       	pop	r29
    21b8:	cf 91       	pop	r28
    21ba:	1f 91       	pop	r17
    21bc:	0f 91       	pop	r16
    21be:	ff 90       	pop	r15
    21c0:	ef 90       	pop	r14
    21c2:	df 90       	pop	r13
    21c4:	cf 90       	pop	r12
    21c6:	bf 90       	pop	r11
    21c8:	af 90       	pop	r10
    21ca:	9f 90       	pop	r9
    21cc:	8f 90       	pop	r8
    21ce:	7f 90       	pop	r7
    21d0:	6f 90       	pop	r6
    21d2:	5f 90       	pop	r5
    21d4:	08 95       	ret

000021d6 <qtm_ptc_qtlib_assign_signal_memory>:
    21d6:	00 97       	sbiw	r24, 0x00	; 0
    21d8:	31 f0       	breq	.+12     	; 0x21e6 <qtm_ptc_qtlib_assign_signal_memory+0x10>
    21da:	80 93 20 41 	sts	0x4120, r24	; 0x804120 <qtm_raw_data_measurements_ptr>
    21de:	90 93 21 41 	sts	0x4121, r25	; 0x804121 <qtm_raw_data_measurements_ptr+0x1>
    21e2:	80 e0       	ldi	r24, 0x00	; 0
    21e4:	08 95       	ret
    21e6:	8b e0       	ldi	r24, 0x0B	; 11
    21e8:	08 95       	ret

000021ea <qtm_ptc_start_measurement_seq>:
    21ea:	61 15       	cp	r22, r1
    21ec:	71 05       	cpc	r23, r1
    21ee:	61 f1       	breq	.+88     	; 0x2248 <qtm_ptc_start_measurement_seq+0x5e>
    21f0:	00 97       	sbiw	r24, 0x00	; 0
    21f2:	51 f1       	breq	.+84     	; 0x2248 <qtm_ptc_start_measurement_seq+0x5e>
    21f4:	20 91 e4 40 	lds	r18, 0x40E4	; 0x8040e4 <touch_seq_lib_state>
    21f8:	22 23       	and	r18, r18
    21fa:	41 f1       	breq	.+80     	; 0x224c <qtm_ptc_start_measurement_seq+0x62>
    21fc:	24 30       	cpi	r18, 0x04	; 4
    21fe:	41 f1       	breq	.+80     	; 0x2250 <qtm_ptc_start_measurement_seq+0x66>
    2200:	80 93 1e 41 	sts	0x411E, r24	; 0x80411e <qtm_acquisition_control_working_set_ptr>
    2204:	90 93 1f 41 	sts	0x411F, r25	; 0x80411f <qtm_acquisition_control_working_set_ptr+0x1>
    2208:	60 93 e2 40 	sts	0x40E2, r22	; 0x8040e2 <ptc_seq_measure_complete_pointer>
    220c:	70 93 e3 40 	sts	0x40E3, r23	; 0x8040e3 <ptc_seq_measure_complete_pointer+0x1>
    2210:	dc 01       	movw	r26, r24
    2212:	ed 91       	ld	r30, X+
    2214:	fc 91       	ld	r31, X
    2216:	22 81       	ldd	r18, Z+2	; 0x02
    2218:	20 34       	cpi	r18, 0x40	; 64
    221a:	19 f4       	brne	.+6      	; 0x2222 <qtm_ptc_start_measurement_seq+0x38>
    221c:	10 92 c1 07 	sts	0x07C1, r1	; 0x8007c1 <__TEXT_REGION_LENGTH__+0x7e07c1>
    2220:	07 c0       	rjmp	.+14     	; 0x2230 <qtm_ptc_start_measurement_seq+0x46>
    2222:	20 38       	cpi	r18, 0x80	; 128
    2224:	11 f0       	breq	.+4      	; 0x222a <qtm_ptc_start_measurement_seq+0x40>
    2226:	21 38       	cpi	r18, 0x81	; 129
    2228:	31 f4       	brne	.+12     	; 0x2236 <qtm_ptc_start_measurement_seq+0x4c>
    222a:	21 e0       	ldi	r18, 0x01	; 1
    222c:	20 93 c1 07 	sts	0x07C1, r18	; 0x8007c1 <__TEXT_REGION_LENGTH__+0x7e07c1>
    2230:	10 92 cb 07 	sts	0x07CB, r1	; 0x8007cb <__TEXT_REGION_LENGTH__+0x7e07cb>
    2234:	11 c0       	rjmp	.+34     	; 0x2258 <qtm_ptc_start_measurement_seq+0x6e>
    2236:	22 38       	cpi	r18, 0x82	; 130
    2238:	69 f4       	brne	.+26     	; 0x2254 <qtm_ptc_start_measurement_seq+0x6a>
    223a:	21 e0       	ldi	r18, 0x01	; 1
    223c:	20 93 c1 07 	sts	0x07C1, r18	; 0x8007c1 <__TEXT_REGION_LENGTH__+0x7e07c1>
    2240:	29 e0       	ldi	r18, 0x09	; 9
    2242:	20 93 cb 07 	sts	0x07CB, r18	; 0x8007cb <__TEXT_REGION_LENGTH__+0x7e07cb>
    2246:	08 c0       	rjmp	.+16     	; 0x2258 <qtm_ptc_start_measurement_seq+0x6e>
    2248:	8b e0       	ldi	r24, 0x0B	; 11
    224a:	08 95       	ret
    224c:	83 e0       	ldi	r24, 0x03	; 3
    224e:	08 95       	ret
    2250:	81 e0       	ldi	r24, 0x01	; 1
    2252:	08 95       	ret
    2254:	82 e0       	ldi	r24, 0x02	; 2
    2256:	08 95       	ret
    2258:	10 92 c0 07 	sts	0x07C0, r1	; 0x8007c0 <__TEXT_REGION_LENGTH__+0x7e07c0>
    225c:	dc 01       	movw	r26, r24
    225e:	ed 91       	ld	r30, X+
    2260:	fc 91       	ld	r31, X
    2262:	84 81       	ldd	r24, Z+4	; 0x04
    2264:	92 81       	ldd	r25, Z+2	; 0x02
    2266:	90 34       	cpi	r25, 0x40	; 64
    2268:	51 f4       	brne	.+20     	; 0x227e <qtm_ptc_start_measurement_seq+0x94>
    226a:	10 92 c5 07 	sts	0x07C5, r1	; 0x8007c5 <__TEXT_REGION_LENGTH__+0x7e07c5>
    226e:	80 31       	cpi	r24, 0x10	; 16
    2270:	10 f4       	brcc	.+4      	; 0x2276 <qtm_ptc_start_measurement_seq+0x8c>
    2272:	80 62       	ori	r24, 0x20	; 32
    2274:	01 c0       	rjmp	.+2      	; 0x2278 <qtm_ptc_start_measurement_seq+0x8e>
    2276:	8f e2       	ldi	r24, 0x2F	; 47
    2278:	80 93 c3 07 	sts	0x07C3, r24	; 0x8007c3 <__TEXT_REGION_LENGTH__+0x7e07c3>
    227c:	08 c0       	rjmp	.+16     	; 0x228e <qtm_ptc_start_measurement_seq+0xa4>
    227e:	90 e2       	ldi	r25, 0x20	; 32
    2280:	90 93 c3 07 	sts	0x07C3, r25	; 0x8007c3 <__TEXT_REGION_LENGTH__+0x7e07c3>
    2284:	8f 30       	cpi	r24, 0x0F	; 15
    2286:	08 f0       	brcs	.+2      	; 0x228a <qtm_ptc_start_measurement_seq+0xa0>
    2288:	8f e0       	ldi	r24, 0x0F	; 15
    228a:	80 93 c5 07 	sts	0x07C5, r24	; 0x8007c5 <__TEXT_REGION_LENGTH__+0x7e07c5>
    228e:	81 e0       	ldi	r24, 0x01	; 1
    2290:	80 93 d3 07 	sts	0x07D3, r24	; 0x8007d3 <__TEXT_REGION_LENGTH__+0x7e07d3>
    2294:	80 93 d2 07 	sts	0x07D2, r24	; 0x8007d2 <__TEXT_REGION_LENGTH__+0x7e07d2>
    2298:	80 93 88 40 	sts	0x4088, r24	; 0x804088 <qtm_which_mode_current>
    229c:	10 92 e5 40 	sts	0x40E5, r1	; 0x8040e5 <current_measure_channel>
    22a0:	10 92 e6 40 	sts	0x40E6, r1	; 0x8040e6 <current_measure_channel+0x1>
    22a4:	0e 94 6a 0c 	call	0x18d4	; 0x18d4 <select_next_channel_to_measure>
    22a8:	81 11       	cpse	r24, r1
    22aa:	0b c0       	rjmp	.+22     	; 0x22c2 <qtm_ptc_start_measurement_seq+0xd8>
    22ac:	84 e0       	ldi	r24, 0x04	; 4
    22ae:	80 93 e4 40 	sts	0x40E4, r24	; 0x8040e4 <touch_seq_lib_state>
    22b2:	80 91 e5 40 	lds	r24, 0x40E5	; 0x8040e5 <current_measure_channel>
    22b6:	90 91 e6 40 	lds	r25, 0x40E6	; 0x8040e6 <current_measure_channel+0x1>
    22ba:	0e 94 9d 0c 	call	0x193a	; 0x193a <qtm_measure_node>
    22be:	80 e0       	ldi	r24, 0x00	; 0
    22c0:	08 95       	ret
    22c2:	82 e0       	ldi	r24, 0x02	; 2
    22c4:	80 93 e4 40 	sts	0x40E4, r24	; 0x8040e4 <touch_seq_lib_state>
    22c8:	08 95       	ret

000022ca <qtm_enable_sensor_node>:
    22ca:	00 97       	sbiw	r24, 0x00	; 0
    22cc:	c9 f0       	breq	.+50     	; 0x2300 <qtm_enable_sensor_node+0x36>
    22ce:	dc 01       	movw	r26, r24
    22d0:	ed 91       	ld	r30, X+
    22d2:	fc 91       	ld	r31, X
    22d4:	11 97       	sbiw	r26, 0x01	; 1
    22d6:	20 81       	ld	r18, Z
    22d8:	31 81       	ldd	r19, Z+1	; 0x01
    22da:	26 17       	cp	r18, r22
    22dc:	37 07       	cpc	r19, r23
    22de:	90 f0       	brcs	.+36     	; 0x2304 <qtm_enable_sensor_node+0x3a>
    22e0:	45 e0       	ldi	r20, 0x05	; 5
    22e2:	46 9f       	mul	r20, r22
    22e4:	90 01       	movw	r18, r0
    22e6:	47 9f       	mul	r20, r23
    22e8:	30 0d       	add	r19, r0
    22ea:	11 24       	eor	r1, r1
    22ec:	14 96       	adiw	r26, 0x04	; 4
    22ee:	ed 91       	ld	r30, X+
    22f0:	fc 91       	ld	r31, X
    22f2:	15 97       	sbiw	r26, 0x05	; 5
    22f4:	e2 0f       	add	r30, r18
    22f6:	f3 1f       	adc	r31, r19
    22f8:	81 e0       	ldi	r24, 0x01	; 1
    22fa:	80 83       	st	Z, r24
    22fc:	80 e0       	ldi	r24, 0x00	; 0
    22fe:	08 95       	ret
    2300:	8b e0       	ldi	r24, 0x0B	; 11
    2302:	08 95       	ret
    2304:	82 e0       	ldi	r24, 0x02	; 2
    2306:	08 95       	ret

00002308 <qtm_calibrate_sensor_node>:
    2308:	fc 01       	movw	r30, r24
    230a:	89 2b       	or	r24, r25
    230c:	d1 f1       	breq	.+116    	; 0x2382 <qtm_calibrate_sensor_node+0x7a>
    230e:	a0 81       	ld	r26, Z
    2310:	b1 81       	ldd	r27, Z+1	; 0x01
    2312:	8d 91       	ld	r24, X+
    2314:	9c 91       	ld	r25, X
    2316:	11 97       	sbiw	r26, 0x01	; 1
    2318:	86 17       	cp	r24, r22
    231a:	97 07       	cpc	r25, r23
    231c:	a0 f1       	brcs	.+104    	; 0x2386 <qtm_calibrate_sensor_node+0x7e>
    231e:	12 96       	adiw	r26, 0x02	; 2
    2320:	9c 91       	ld	r25, X
    2322:	04 80       	ldd	r0, Z+4	; 0x04
    2324:	f5 81       	ldd	r31, Z+5	; 0x05
    2326:	e0 2d       	mov	r30, r0
    2328:	90 34       	cpi	r25, 0x40	; 64
    232a:	59 f4       	brne	.+22     	; 0x2342 <qtm_calibrate_sensor_node+0x3a>
    232c:	85 e0       	ldi	r24, 0x05	; 5
    232e:	86 9f       	mul	r24, r22
    2330:	d0 01       	movw	r26, r0
    2332:	87 9f       	mul	r24, r23
    2334:	b0 0d       	add	r27, r0
    2336:	11 24       	eor	r1, r1
    2338:	ae 0f       	add	r26, r30
    233a:	bf 1f       	adc	r27, r31
    233c:	80 ea       	ldi	r24, 0xA0	; 160
    233e:	90 e0       	ldi	r25, 0x00	; 0
    2340:	0d c0       	rjmp	.+26     	; 0x235c <qtm_calibrate_sensor_node+0x54>
    2342:	90 58       	subi	r25, 0x80	; 128
    2344:	93 30       	cpi	r25, 0x03	; 3
    2346:	80 f4       	brcc	.+32     	; 0x2368 <qtm_calibrate_sensor_node+0x60>
    2348:	85 e0       	ldi	r24, 0x05	; 5
    234a:	86 9f       	mul	r24, r22
    234c:	d0 01       	movw	r26, r0
    234e:	87 9f       	mul	r24, r23
    2350:	b0 0d       	add	r27, r0
    2352:	11 24       	eor	r1, r1
    2354:	ae 0f       	add	r26, r30
    2356:	bf 1f       	adc	r27, r31
    2358:	80 ef       	ldi	r24, 0xF0	; 240
    235a:	90 e0       	ldi	r25, 0x00	; 0
    235c:	13 96       	adiw	r26, 0x03	; 3
    235e:	8d 93       	st	X+, r24
    2360:	9c 93       	st	X, r25
    2362:	14 97       	sbiw	r26, 0x04	; 4
    2364:	80 e0       	ldi	r24, 0x00	; 0
    2366:	01 c0       	rjmp	.+2      	; 0x236a <qtm_calibrate_sensor_node+0x62>
    2368:	82 e0       	ldi	r24, 0x02	; 2
    236a:	95 e0       	ldi	r25, 0x05	; 5
    236c:	96 9f       	mul	r25, r22
    236e:	90 01       	movw	r18, r0
    2370:	97 9f       	mul	r25, r23
    2372:	30 0d       	add	r19, r0
    2374:	11 24       	eor	r1, r1
    2376:	e2 0f       	add	r30, r18
    2378:	f3 1f       	adc	r31, r19
    237a:	90 81       	ld	r25, Z
    237c:	92 60       	ori	r25, 0x02	; 2
    237e:	90 83       	st	Z, r25
    2380:	08 95       	ret
    2382:	8b e0       	ldi	r24, 0x0B	; 11
    2384:	08 95       	ret
    2386:	82 e0       	ldi	r24, 0x02	; 2
    2388:	08 95       	ret

0000238a <qtm_avr_da_ptc_handler_wcomp>:
    238a:	20 91 da 07 	lds	r18, 0x07DA	; 0x8007da <__TEXT_REGION_LENGTH__+0x7e07da>
    238e:	30 91 db 07 	lds	r19, 0x07DB	; 0x8007db <__TEXT_REGION_LENGTH__+0x7e07db>
    2392:	60 91 e5 40 	lds	r22, 0x40E5	; 0x8040e5 <current_measure_channel>
    2396:	70 91 e6 40 	lds	r23, 0x40E6	; 0x8040e6 <current_measure_channel+0x1>
    239a:	cb 01       	movw	r24, r22
    239c:	88 0f       	add	r24, r24
    239e:	99 1f       	adc	r25, r25
    23a0:	e0 91 20 41 	lds	r30, 0x4120	; 0x804120 <qtm_raw_data_measurements_ptr>
    23a4:	f0 91 21 41 	lds	r31, 0x4121	; 0x804121 <qtm_raw_data_measurements_ptr+0x1>
    23a8:	e8 0f       	add	r30, r24
    23aa:	f9 1f       	adc	r31, r25
    23ac:	20 83       	st	Z, r18
    23ae:	31 83       	std	Z+1, r19	; 0x01
    23b0:	a0 91 1e 41 	lds	r26, 0x411E	; 0x80411e <qtm_acquisition_control_working_set_ptr>
    23b4:	b0 91 1f 41 	lds	r27, 0x411F	; 0x80411f <qtm_acquisition_control_working_set_ptr+0x1>
    23b8:	44 e1       	ldi	r20, 0x14	; 20
    23ba:	46 9f       	mul	r20, r22
    23bc:	c0 01       	movw	r24, r0
    23be:	47 9f       	mul	r20, r23
    23c0:	90 0d       	add	r25, r0
    23c2:	11 24       	eor	r1, r1
    23c4:	12 96       	adiw	r26, 0x02	; 2
    23c6:	ed 91       	ld	r30, X+
    23c8:	fc 91       	ld	r31, X
    23ca:	13 97       	sbiw	r26, 0x03	; 3
    23cc:	e8 0f       	add	r30, r24
    23ce:	f9 1f       	adc	r31, r25
    23d0:	92 89       	ldd	r25, Z+18	; 0x12
    23d2:	9f 70       	andi	r25, 0x0F	; 15
    23d4:	83 89       	ldd	r24, Z+19	; 0x13
    23d6:	98 17       	cp	r25, r24
    23d8:	10 f4       	brcc	.+4      	; 0x23de <qtm_avr_da_ptc_handler_wcomp+0x54>
    23da:	89 1b       	sub	r24, r25
    23dc:	01 c0       	rjmp	.+2      	; 0x23e0 <qtm_avr_da_ptc_handler_wcomp+0x56>
    23de:	80 e0       	ldi	r24, 0x00	; 0
    23e0:	95 e0       	ldi	r25, 0x05	; 5
    23e2:	96 9f       	mul	r25, r22
    23e4:	a0 01       	movw	r20, r0
    23e6:	97 9f       	mul	r25, r23
    23e8:	50 0d       	add	r21, r0
    23ea:	11 24       	eor	r1, r1
    23ec:	14 96       	adiw	r26, 0x04	; 4
    23ee:	ed 91       	ld	r30, X+
    23f0:	fc 91       	ld	r31, X
    23f2:	15 97       	sbiw	r26, 0x05	; 5
    23f4:	e4 0f       	add	r30, r20
    23f6:	f5 1f       	adc	r31, r21
    23f8:	02 c0       	rjmp	.+4      	; 0x23fe <qtm_avr_da_ptc_handler_wcomp+0x74>
    23fa:	36 95       	lsr	r19
    23fc:	27 95       	ror	r18
    23fe:	8a 95       	dec	r24
    2400:	e2 f7       	brpl	.-8      	; 0x23fa <qtm_avr_da_ptc_handler_wcomp+0x70>
    2402:	21 83       	std	Z+1, r18	; 0x01
    2404:	32 83       	std	Z+2, r19	; 0x02
    2406:	82 e0       	ldi	r24, 0x02	; 2
    2408:	80 93 e4 40 	sts	0x40E4, r24	; 0x8040e4 <touch_seq_lib_state>
    240c:	e0 91 e0 40 	lds	r30, 0x40E0	; 0x8040e0 <ptc_wcomp_happened_pointer>
    2410:	f0 91 e1 40 	lds	r31, 0x40E1	; 0x8040e1 <ptc_wcomp_happened_pointer+0x1>
    2414:	09 94       	ijmp

00002416 <qtm_avr_da_ptc_handler_eoc>:
    2416:	10 92 c0 07 	sts	0x07C0, r1	; 0x8007c0 <__TEXT_REGION_LENGTH__+0x7e07c0>
    241a:	80 91 88 40 	lds	r24, 0x4088	; 0x804088 <qtm_which_mode_current>
    241e:	81 30       	cpi	r24, 0x01	; 1
    2420:	09 f0       	breq	.+2      	; 0x2424 <qtm_avr_da_ptc_handler_eoc+0xe>
    2422:	4e c0       	rjmp	.+156    	; 0x24c0 <qtm_avr_da_ptc_handler_eoc+0xaa>
    2424:	40 91 da 07 	lds	r20, 0x07DA	; 0x8007da <__TEXT_REGION_LENGTH__+0x7e07da>
    2428:	50 91 db 07 	lds	r21, 0x07DB	; 0x8007db <__TEXT_REGION_LENGTH__+0x7e07db>
    242c:	80 91 e5 40 	lds	r24, 0x40E5	; 0x8040e5 <current_measure_channel>
    2430:	90 91 e6 40 	lds	r25, 0x40E6	; 0x8040e6 <current_measure_channel+0x1>
    2434:	9c 01       	movw	r18, r24
    2436:	22 0f       	add	r18, r18
    2438:	33 1f       	adc	r19, r19
    243a:	e0 91 20 41 	lds	r30, 0x4120	; 0x804120 <qtm_raw_data_measurements_ptr>
    243e:	f0 91 21 41 	lds	r31, 0x4121	; 0x804121 <qtm_raw_data_measurements_ptr+0x1>
    2442:	e2 0f       	add	r30, r18
    2444:	f3 1f       	adc	r31, r19
    2446:	40 83       	st	Z, r20
    2448:	51 83       	std	Z+1, r21	; 0x01
    244a:	01 96       	adiw	r24, 0x01	; 1
    244c:	80 93 e5 40 	sts	0x40E5, r24	; 0x8040e5 <current_measure_channel>
    2450:	90 93 e6 40 	sts	0x40E6, r25	; 0x8040e6 <current_measure_channel+0x1>
    2454:	0e 94 6a 0c 	call	0x18d4	; 0x18d4 <select_next_channel_to_measure>
    2458:	81 11       	cpse	r24, r1
    245a:	09 c0       	rjmp	.+18     	; 0x246e <qtm_avr_da_ptc_handler_eoc+0x58>
    245c:	84 e0       	ldi	r24, 0x04	; 4
    245e:	80 93 e4 40 	sts	0x40E4, r24	; 0x8040e4 <touch_seq_lib_state>
    2462:	80 91 e5 40 	lds	r24, 0x40E5	; 0x8040e5 <current_measure_channel>
    2466:	90 91 e6 40 	lds	r25, 0x40E6	; 0x8040e6 <current_measure_channel+0x1>
    246a:	0c 94 9d 0c 	jmp	0x193a	; 0x193a <qtm_measure_node>
    246e:	10 92 e8 07 	sts	0x07E8, r1	; 0x8007e8 <__TEXT_REGION_LENGTH__+0x7e07e8>
    2472:	10 92 e9 07 	sts	0x07E9, r1	; 0x8007e9 <__TEXT_REGION_LENGTH__+0x7e07e9>
    2476:	10 92 ea 07 	sts	0x07EA, r1	; 0x8007ea <__TEXT_REGION_LENGTH__+0x7e07ea>
    247a:	10 92 eb 07 	sts	0x07EB, r1	; 0x8007eb <__TEXT_REGION_LENGTH__+0x7e07eb>
    247e:	10 92 ec 07 	sts	0x07EC, r1	; 0x8007ec <__TEXT_REGION_LENGTH__+0x7e07ec>
    2482:	10 92 ed 07 	sts	0x07ED, r1	; 0x8007ed <__TEXT_REGION_LENGTH__+0x7e07ed>
    2486:	10 92 f0 07 	sts	0x07F0, r1	; 0x8007f0 <__TEXT_REGION_LENGTH__+0x7e07f0>
    248a:	10 92 f1 07 	sts	0x07F1, r1	; 0x8007f1 <__TEXT_REGION_LENGTH__+0x7e07f1>
    248e:	10 92 f2 07 	sts	0x07F2, r1	; 0x8007f2 <__TEXT_REGION_LENGTH__+0x7e07f2>
    2492:	10 92 f3 07 	sts	0x07F3, r1	; 0x8007f3 <__TEXT_REGION_LENGTH__+0x7e07f3>
    2496:	10 92 f4 07 	sts	0x07F4, r1	; 0x8007f4 <__TEXT_REGION_LENGTH__+0x7e07f4>
    249a:	10 92 f5 07 	sts	0x07F5, r1	; 0x8007f5 <__TEXT_REGION_LENGTH__+0x7e07f5>
    249e:	10 92 f8 07 	sts	0x07F8, r1	; 0x8007f8 <__TEXT_REGION_LENGTH__+0x7e07f8>
    24a2:	10 92 f9 07 	sts	0x07F9, r1	; 0x8007f9 <__TEXT_REGION_LENGTH__+0x7e07f9>
    24a6:	10 92 fa 07 	sts	0x07FA, r1	; 0x8007fa <__TEXT_REGION_LENGTH__+0x7e07fa>
    24aa:	10 92 fb 07 	sts	0x07FB, r1	; 0x8007fb <__TEXT_REGION_LENGTH__+0x7e07fb>
    24ae:	10 92 fc 07 	sts	0x07FC, r1	; 0x8007fc <__TEXT_REGION_LENGTH__+0x7e07fc>
    24b2:	10 92 fd 07 	sts	0x07FD, r1	; 0x8007fd <__TEXT_REGION_LENGTH__+0x7e07fd>
    24b6:	e0 91 e2 40 	lds	r30, 0x40E2	; 0x8040e2 <ptc_seq_measure_complete_pointer>
    24ba:	f0 91 e3 40 	lds	r31, 0x40E3	; 0x8040e3 <ptc_seq_measure_complete_pointer+0x1>
    24be:	09 94       	ijmp
    24c0:	0c 94 c5 11 	jmp	0x238a	; 0x238a <qtm_avr_da_ptc_handler_wcomp>

000024c4 <__fixunssfsi>:
    24c4:	0e 94 d6 12 	call	0x25ac	; 0x25ac <__fp_splitA>
    24c8:	88 f0       	brcs	.+34     	; 0x24ec <__fixunssfsi+0x28>
    24ca:	9f 57       	subi	r25, 0x7F	; 127
    24cc:	98 f0       	brcs	.+38     	; 0x24f4 <__fixunssfsi+0x30>
    24ce:	b9 2f       	mov	r27, r25
    24d0:	99 27       	eor	r25, r25
    24d2:	b7 51       	subi	r27, 0x17	; 23
    24d4:	b0 f0       	brcs	.+44     	; 0x2502 <__fixunssfsi+0x3e>
    24d6:	e1 f0       	breq	.+56     	; 0x2510 <__fixunssfsi+0x4c>
    24d8:	66 0f       	add	r22, r22
    24da:	77 1f       	adc	r23, r23
    24dc:	88 1f       	adc	r24, r24
    24de:	99 1f       	adc	r25, r25
    24e0:	1a f0       	brmi	.+6      	; 0x24e8 <__fixunssfsi+0x24>
    24e2:	ba 95       	dec	r27
    24e4:	c9 f7       	brne	.-14     	; 0x24d8 <__fixunssfsi+0x14>
    24e6:	14 c0       	rjmp	.+40     	; 0x2510 <__fixunssfsi+0x4c>
    24e8:	b1 30       	cpi	r27, 0x01	; 1
    24ea:	91 f0       	breq	.+36     	; 0x2510 <__fixunssfsi+0x4c>
    24ec:	0e 94 f0 12 	call	0x25e0	; 0x25e0 <__fp_zero>
    24f0:	b1 e0       	ldi	r27, 0x01	; 1
    24f2:	08 95       	ret
    24f4:	0c 94 f0 12 	jmp	0x25e0	; 0x25e0 <__fp_zero>
    24f8:	67 2f       	mov	r22, r23
    24fa:	78 2f       	mov	r23, r24
    24fc:	88 27       	eor	r24, r24
    24fe:	b8 5f       	subi	r27, 0xF8	; 248
    2500:	39 f0       	breq	.+14     	; 0x2510 <__fixunssfsi+0x4c>
    2502:	b9 3f       	cpi	r27, 0xF9	; 249
    2504:	cc f3       	brlt	.-14     	; 0x24f8 <__fixunssfsi+0x34>
    2506:	86 95       	lsr	r24
    2508:	77 95       	ror	r23
    250a:	67 95       	ror	r22
    250c:	b3 95       	inc	r27
    250e:	d9 f7       	brne	.-10     	; 0x2506 <__fixunssfsi+0x42>
    2510:	3e f4       	brtc	.+14     	; 0x2520 <__fixunssfsi+0x5c>
    2512:	90 95       	com	r25
    2514:	80 95       	com	r24
    2516:	70 95       	com	r23
    2518:	61 95       	neg	r22
    251a:	7f 4f       	sbci	r23, 0xFF	; 255
    251c:	8f 4f       	sbci	r24, 0xFF	; 255
    251e:	9f 4f       	sbci	r25, 0xFF	; 255
    2520:	08 95       	ret

00002522 <__floatunsisf>:
    2522:	e8 94       	clt
    2524:	09 c0       	rjmp	.+18     	; 0x2538 <__floatsisf+0x12>

00002526 <__floatsisf>:
    2526:	97 fb       	bst	r25, 7
    2528:	3e f4       	brtc	.+14     	; 0x2538 <__floatsisf+0x12>
    252a:	90 95       	com	r25
    252c:	80 95       	com	r24
    252e:	70 95       	com	r23
    2530:	61 95       	neg	r22
    2532:	7f 4f       	sbci	r23, 0xFF	; 255
    2534:	8f 4f       	sbci	r24, 0xFF	; 255
    2536:	9f 4f       	sbci	r25, 0xFF	; 255
    2538:	99 23       	and	r25, r25
    253a:	a9 f0       	breq	.+42     	; 0x2566 <__floatsisf+0x40>
    253c:	f9 2f       	mov	r31, r25
    253e:	96 e9       	ldi	r25, 0x96	; 150
    2540:	bb 27       	eor	r27, r27
    2542:	93 95       	inc	r25
    2544:	f6 95       	lsr	r31
    2546:	87 95       	ror	r24
    2548:	77 95       	ror	r23
    254a:	67 95       	ror	r22
    254c:	b7 95       	ror	r27
    254e:	f1 11       	cpse	r31, r1
    2550:	f8 cf       	rjmp	.-16     	; 0x2542 <__floatsisf+0x1c>
    2552:	fa f4       	brpl	.+62     	; 0x2592 <__floatsisf+0x6c>
    2554:	bb 0f       	add	r27, r27
    2556:	11 f4       	brne	.+4      	; 0x255c <__floatsisf+0x36>
    2558:	60 ff       	sbrs	r22, 0
    255a:	1b c0       	rjmp	.+54     	; 0x2592 <__floatsisf+0x6c>
    255c:	6f 5f       	subi	r22, 0xFF	; 255
    255e:	7f 4f       	sbci	r23, 0xFF	; 255
    2560:	8f 4f       	sbci	r24, 0xFF	; 255
    2562:	9f 4f       	sbci	r25, 0xFF	; 255
    2564:	16 c0       	rjmp	.+44     	; 0x2592 <__floatsisf+0x6c>
    2566:	88 23       	and	r24, r24
    2568:	11 f0       	breq	.+4      	; 0x256e <__floatsisf+0x48>
    256a:	96 e9       	ldi	r25, 0x96	; 150
    256c:	11 c0       	rjmp	.+34     	; 0x2590 <__floatsisf+0x6a>
    256e:	77 23       	and	r23, r23
    2570:	21 f0       	breq	.+8      	; 0x257a <__floatsisf+0x54>
    2572:	9e e8       	ldi	r25, 0x8E	; 142
    2574:	87 2f       	mov	r24, r23
    2576:	76 2f       	mov	r23, r22
    2578:	05 c0       	rjmp	.+10     	; 0x2584 <__floatsisf+0x5e>
    257a:	66 23       	and	r22, r22
    257c:	71 f0       	breq	.+28     	; 0x259a <__floatsisf+0x74>
    257e:	96 e8       	ldi	r25, 0x86	; 134
    2580:	86 2f       	mov	r24, r22
    2582:	70 e0       	ldi	r23, 0x00	; 0
    2584:	60 e0       	ldi	r22, 0x00	; 0
    2586:	2a f0       	brmi	.+10     	; 0x2592 <__floatsisf+0x6c>
    2588:	9a 95       	dec	r25
    258a:	66 0f       	add	r22, r22
    258c:	77 1f       	adc	r23, r23
    258e:	88 1f       	adc	r24, r24
    2590:	da f7       	brpl	.-10     	; 0x2588 <__floatsisf+0x62>
    2592:	88 0f       	add	r24, r24
    2594:	96 95       	lsr	r25
    2596:	87 95       	ror	r24
    2598:	97 f9       	bld	r25, 7
    259a:	08 95       	ret

0000259c <__fp_split3>:
    259c:	57 fd       	sbrc	r21, 7
    259e:	90 58       	subi	r25, 0x80	; 128
    25a0:	44 0f       	add	r20, r20
    25a2:	55 1f       	adc	r21, r21
    25a4:	59 f0       	breq	.+22     	; 0x25bc <__fp_splitA+0x10>
    25a6:	5f 3f       	cpi	r21, 0xFF	; 255
    25a8:	71 f0       	breq	.+28     	; 0x25c6 <__fp_splitA+0x1a>
    25aa:	47 95       	ror	r20

000025ac <__fp_splitA>:
    25ac:	88 0f       	add	r24, r24
    25ae:	97 fb       	bst	r25, 7
    25b0:	99 1f       	adc	r25, r25
    25b2:	61 f0       	breq	.+24     	; 0x25cc <__fp_splitA+0x20>
    25b4:	9f 3f       	cpi	r25, 0xFF	; 255
    25b6:	79 f0       	breq	.+30     	; 0x25d6 <__fp_splitA+0x2a>
    25b8:	87 95       	ror	r24
    25ba:	08 95       	ret
    25bc:	12 16       	cp	r1, r18
    25be:	13 06       	cpc	r1, r19
    25c0:	14 06       	cpc	r1, r20
    25c2:	55 1f       	adc	r21, r21
    25c4:	f2 cf       	rjmp	.-28     	; 0x25aa <__fp_split3+0xe>
    25c6:	46 95       	lsr	r20
    25c8:	f1 df       	rcall	.-30     	; 0x25ac <__fp_splitA>
    25ca:	08 c0       	rjmp	.+16     	; 0x25dc <__fp_splitA+0x30>
    25cc:	16 16       	cp	r1, r22
    25ce:	17 06       	cpc	r1, r23
    25d0:	18 06       	cpc	r1, r24
    25d2:	99 1f       	adc	r25, r25
    25d4:	f1 cf       	rjmp	.-30     	; 0x25b8 <__fp_splitA+0xc>
    25d6:	86 95       	lsr	r24
    25d8:	71 05       	cpc	r23, r1
    25da:	61 05       	cpc	r22, r1
    25dc:	08 94       	sec
    25de:	08 95       	ret

000025e0 <__fp_zero>:
    25e0:	e8 94       	clt

000025e2 <__fp_szero>:
    25e2:	bb 27       	eor	r27, r27
    25e4:	66 27       	eor	r22, r22
    25e6:	77 27       	eor	r23, r23
    25e8:	cb 01       	movw	r24, r22
    25ea:	97 f9       	bld	r25, 7
    25ec:	08 95       	ret

000025ee <__mulsf3>:
    25ee:	0e 94 0a 13 	call	0x2614	; 0x2614 <__mulsf3x>
    25f2:	0c 94 7b 13 	jmp	0x26f6	; 0x26f6 <__fp_round>
    25f6:	0e 94 6d 13 	call	0x26da	; 0x26da <__fp_pscA>
    25fa:	38 f0       	brcs	.+14     	; 0x260a <__mulsf3+0x1c>
    25fc:	0e 94 74 13 	call	0x26e8	; 0x26e8 <__fp_pscB>
    2600:	20 f0       	brcs	.+8      	; 0x260a <__mulsf3+0x1c>
    2602:	95 23       	and	r25, r21
    2604:	11 f0       	breq	.+4      	; 0x260a <__mulsf3+0x1c>
    2606:	0c 94 64 13 	jmp	0x26c8	; 0x26c8 <__fp_inf>
    260a:	0c 94 6a 13 	jmp	0x26d4	; 0x26d4 <__fp_nan>
    260e:	11 24       	eor	r1, r1
    2610:	0c 94 f1 12 	jmp	0x25e2	; 0x25e2 <__fp_szero>

00002614 <__mulsf3x>:
    2614:	0e 94 ce 12 	call	0x259c	; 0x259c <__fp_split3>
    2618:	70 f3       	brcs	.-36     	; 0x25f6 <__mulsf3+0x8>

0000261a <__mulsf3_pse>:
    261a:	95 9f       	mul	r25, r21
    261c:	c1 f3       	breq	.-16     	; 0x260e <__mulsf3+0x20>
    261e:	95 0f       	add	r25, r21
    2620:	50 e0       	ldi	r21, 0x00	; 0
    2622:	55 1f       	adc	r21, r21
    2624:	62 9f       	mul	r22, r18
    2626:	f0 01       	movw	r30, r0
    2628:	72 9f       	mul	r23, r18
    262a:	bb 27       	eor	r27, r27
    262c:	f0 0d       	add	r31, r0
    262e:	b1 1d       	adc	r27, r1
    2630:	63 9f       	mul	r22, r19
    2632:	aa 27       	eor	r26, r26
    2634:	f0 0d       	add	r31, r0
    2636:	b1 1d       	adc	r27, r1
    2638:	aa 1f       	adc	r26, r26
    263a:	64 9f       	mul	r22, r20
    263c:	66 27       	eor	r22, r22
    263e:	b0 0d       	add	r27, r0
    2640:	a1 1d       	adc	r26, r1
    2642:	66 1f       	adc	r22, r22
    2644:	82 9f       	mul	r24, r18
    2646:	22 27       	eor	r18, r18
    2648:	b0 0d       	add	r27, r0
    264a:	a1 1d       	adc	r26, r1
    264c:	62 1f       	adc	r22, r18
    264e:	73 9f       	mul	r23, r19
    2650:	b0 0d       	add	r27, r0
    2652:	a1 1d       	adc	r26, r1
    2654:	62 1f       	adc	r22, r18
    2656:	83 9f       	mul	r24, r19
    2658:	a0 0d       	add	r26, r0
    265a:	61 1d       	adc	r22, r1
    265c:	22 1f       	adc	r18, r18
    265e:	74 9f       	mul	r23, r20
    2660:	33 27       	eor	r19, r19
    2662:	a0 0d       	add	r26, r0
    2664:	61 1d       	adc	r22, r1
    2666:	23 1f       	adc	r18, r19
    2668:	84 9f       	mul	r24, r20
    266a:	60 0d       	add	r22, r0
    266c:	21 1d       	adc	r18, r1
    266e:	82 2f       	mov	r24, r18
    2670:	76 2f       	mov	r23, r22
    2672:	6a 2f       	mov	r22, r26
    2674:	11 24       	eor	r1, r1
    2676:	9f 57       	subi	r25, 0x7F	; 127
    2678:	50 40       	sbci	r21, 0x00	; 0
    267a:	9a f0       	brmi	.+38     	; 0x26a2 <__mulsf3_pse+0x88>
    267c:	f1 f0       	breq	.+60     	; 0x26ba <__mulsf3_pse+0xa0>
    267e:	88 23       	and	r24, r24
    2680:	4a f0       	brmi	.+18     	; 0x2694 <__mulsf3_pse+0x7a>
    2682:	ee 0f       	add	r30, r30
    2684:	ff 1f       	adc	r31, r31
    2686:	bb 1f       	adc	r27, r27
    2688:	66 1f       	adc	r22, r22
    268a:	77 1f       	adc	r23, r23
    268c:	88 1f       	adc	r24, r24
    268e:	91 50       	subi	r25, 0x01	; 1
    2690:	50 40       	sbci	r21, 0x00	; 0
    2692:	a9 f7       	brne	.-22     	; 0x267e <__mulsf3_pse+0x64>
    2694:	9e 3f       	cpi	r25, 0xFE	; 254
    2696:	51 05       	cpc	r21, r1
    2698:	80 f0       	brcs	.+32     	; 0x26ba <__mulsf3_pse+0xa0>
    269a:	0c 94 64 13 	jmp	0x26c8	; 0x26c8 <__fp_inf>
    269e:	0c 94 f1 12 	jmp	0x25e2	; 0x25e2 <__fp_szero>
    26a2:	5f 3f       	cpi	r21, 0xFF	; 255
    26a4:	e4 f3       	brlt	.-8      	; 0x269e <__mulsf3_pse+0x84>
    26a6:	98 3e       	cpi	r25, 0xE8	; 232
    26a8:	d4 f3       	brlt	.-12     	; 0x269e <__mulsf3_pse+0x84>
    26aa:	86 95       	lsr	r24
    26ac:	77 95       	ror	r23
    26ae:	67 95       	ror	r22
    26b0:	b7 95       	ror	r27
    26b2:	f7 95       	ror	r31
    26b4:	e7 95       	ror	r30
    26b6:	9f 5f       	subi	r25, 0xFF	; 255
    26b8:	c1 f7       	brne	.-16     	; 0x26aa <__mulsf3_pse+0x90>
    26ba:	fe 2b       	or	r31, r30
    26bc:	88 0f       	add	r24, r24
    26be:	91 1d       	adc	r25, r1
    26c0:	96 95       	lsr	r25
    26c2:	87 95       	ror	r24
    26c4:	97 f9       	bld	r25, 7
    26c6:	08 95       	ret

000026c8 <__fp_inf>:
    26c8:	97 f9       	bld	r25, 7
    26ca:	9f 67       	ori	r25, 0x7F	; 127
    26cc:	80 e8       	ldi	r24, 0x80	; 128
    26ce:	70 e0       	ldi	r23, 0x00	; 0
    26d0:	60 e0       	ldi	r22, 0x00	; 0
    26d2:	08 95       	ret

000026d4 <__fp_nan>:
    26d4:	9f ef       	ldi	r25, 0xFF	; 255
    26d6:	80 ec       	ldi	r24, 0xC0	; 192
    26d8:	08 95       	ret

000026da <__fp_pscA>:
    26da:	00 24       	eor	r0, r0
    26dc:	0a 94       	dec	r0
    26de:	16 16       	cp	r1, r22
    26e0:	17 06       	cpc	r1, r23
    26e2:	18 06       	cpc	r1, r24
    26e4:	09 06       	cpc	r0, r25
    26e6:	08 95       	ret

000026e8 <__fp_pscB>:
    26e8:	00 24       	eor	r0, r0
    26ea:	0a 94       	dec	r0
    26ec:	12 16       	cp	r1, r18
    26ee:	13 06       	cpc	r1, r19
    26f0:	14 06       	cpc	r1, r20
    26f2:	05 06       	cpc	r0, r21
    26f4:	08 95       	ret

000026f6 <__fp_round>:
    26f6:	09 2e       	mov	r0, r25
    26f8:	03 94       	inc	r0
    26fa:	00 0c       	add	r0, r0
    26fc:	11 f4       	brne	.+4      	; 0x2702 <__fp_round+0xc>
    26fe:	88 23       	and	r24, r24
    2700:	52 f0       	brmi	.+20     	; 0x2716 <__fp_round+0x20>
    2702:	bb 0f       	add	r27, r27
    2704:	40 f4       	brcc	.+16     	; 0x2716 <__fp_round+0x20>
    2706:	bf 2b       	or	r27, r31
    2708:	11 f4       	brne	.+4      	; 0x270e <__fp_round+0x18>
    270a:	60 ff       	sbrs	r22, 0
    270c:	04 c0       	rjmp	.+8      	; 0x2716 <__fp_round+0x20>
    270e:	6f 5f       	subi	r22, 0xFF	; 255
    2710:	7f 4f       	sbci	r23, 0xFF	; 255
    2712:	8f 4f       	sbci	r24, 0xFF	; 255
    2714:	9f 4f       	sbci	r25, 0xFF	; 255
    2716:	08 95       	ret

00002718 <__ashrdi3>:
    2718:	97 fb       	bst	r25, 7
    271a:	10 f8       	bld	r1, 0

0000271c <__lshrdi3>:
    271c:	16 94       	lsr	r1
    271e:	00 08       	sbc	r0, r0
    2720:	0f 93       	push	r16
    2722:	08 30       	cpi	r16, 0x08	; 8
    2724:	98 f0       	brcs	.+38     	; 0x274c <__lshrdi3+0x30>
    2726:	08 50       	subi	r16, 0x08	; 8
    2728:	23 2f       	mov	r18, r19
    272a:	34 2f       	mov	r19, r20
    272c:	45 2f       	mov	r20, r21
    272e:	56 2f       	mov	r21, r22
    2730:	67 2f       	mov	r22, r23
    2732:	78 2f       	mov	r23, r24
    2734:	89 2f       	mov	r24, r25
    2736:	90 2d       	mov	r25, r0
    2738:	f4 cf       	rjmp	.-24     	; 0x2722 <__lshrdi3+0x6>
    273a:	05 94       	asr	r0
    273c:	97 95       	ror	r25
    273e:	87 95       	ror	r24
    2740:	77 95       	ror	r23
    2742:	67 95       	ror	r22
    2744:	57 95       	ror	r21
    2746:	47 95       	ror	r20
    2748:	37 95       	ror	r19
    274a:	27 95       	ror	r18
    274c:	0a 95       	dec	r16
    274e:	aa f7       	brpl	.-22     	; 0x273a <__lshrdi3+0x1e>
    2750:	0f 91       	pop	r16
    2752:	08 95       	ret

00002754 <__cmpdi2_s8>:
    2754:	00 24       	eor	r0, r0
    2756:	a7 fd       	sbrc	r26, 7
    2758:	00 94       	com	r0
    275a:	2a 17       	cp	r18, r26
    275c:	30 05       	cpc	r19, r0
    275e:	40 05       	cpc	r20, r0
    2760:	50 05       	cpc	r21, r0
    2762:	60 05       	cpc	r22, r0
    2764:	70 05       	cpc	r23, r0
    2766:	80 05       	cpc	r24, r0
    2768:	90 05       	cpc	r25, r0
    276a:	08 95       	ret

0000276c <_exit>:
    276c:	f8 94       	cli

0000276e <__stop_program>:
    276e:	ff cf       	rjmp	.-2      	; 0x276e <__stop_program>
